
./app:     file format elf64-x86-64


Disassembly of section .init:

0000000000002000 <_init>:
    2000:	48 83 ec 08          	sub    $0x8,%rsp
    2004:	48 8b 05 cd 5f 00 00 	mov    0x5fcd(%rip),%rax        # 7fd8 <__gmon_start__>
    200b:	48 85 c0             	test   %rax,%rax
    200e:	74 02                	je     2012 <_init+0x12>
    2010:	ff d0                	callq  *%rax
    2012:	48 83 c4 08          	add    $0x8,%rsp
    2016:	c3                   	retq   

Disassembly of section .plt:

0000000000002020 <.plt>:
    2020:	ff 35 b2 5e 00 00    	pushq  0x5eb2(%rip)        # 7ed8 <_GLOBAL_OFFSET_TABLE_+0x8>
    2026:	ff 25 b4 5e 00 00    	jmpq   *0x5eb4(%rip)        # 7ee0 <_GLOBAL_OFFSET_TABLE_+0x10>
    202c:	0f 1f 40 00          	nopl   0x0(%rax)

0000000000002030 <printf@plt>:
    2030:	ff 25 b2 5e 00 00    	jmpq   *0x5eb2(%rip)        # 7ee8 <printf@GLIBC_2.2.5>
    2036:	68 00 00 00 00       	pushq  $0x0
    203b:	e9 e0 ff ff ff       	jmpq   2020 <.plt>

0000000000002040 <sgx_thread_set_untrusted_event_ocall@plt>:
    2040:	ff 25 aa 5e 00 00    	jmpq   *0x5eaa(%rip)        # 7ef0 <sgx_thread_set_untrusted_event_ocall>
    2046:	68 01 00 00 00       	pushq  $0x1
    204b:	e9 d0 ff ff ff       	jmpq   2020 <.plt>

0000000000002050 <std::terminate()@plt>:
    2050:	ff 25 a2 5e 00 00    	jmpq   *0x5ea2(%rip)        # 7ef8 <std::terminate()@GLIBCXX_3.4>
    2056:	68 02 00 00 00       	pushq  $0x2
    205b:	e9 c0 ff ff ff       	jmpq   2020 <.plt>

0000000000002060 <strlen@plt>:
    2060:	ff 25 9a 5e 00 00    	jmpq   *0x5e9a(%rip)        # 7f00 <strlen@GLIBC_2.2.5>
    2066:	68 03 00 00 00       	pushq  $0x3
    206b:	e9 b0 ff ff ff       	jmpq   2020 <.plt>

0000000000002070 <memcmp@plt>:
    2070:	ff 25 92 5e 00 00    	jmpq   *0x5e92(%rip)        # 7f08 <memcmp@GLIBC_2.2.5>
    2076:	68 04 00 00 00       	pushq  $0x4
    207b:	e9 a0 ff ff ff       	jmpq   2020 <.plt>

0000000000002080 <std::thread::_State::~_State()@plt>:
    2080:	ff 25 8a 5e 00 00    	jmpq   *0x5e8a(%rip)        # 7f10 <std::thread::_State::~_State()@GLIBCXX_3.4.22>
    2086:	68 05 00 00 00       	pushq  $0x5
    208b:	e9 90 ff ff ff       	jmpq   2020 <.plt>

0000000000002090 <sgx_thread_setwait_untrusted_events_ocall@plt>:
    2090:	ff 25 82 5e 00 00    	jmpq   *0x5e82(%rip)        # 7f18 <sgx_thread_setwait_untrusted_events_ocall>
    2096:	68 06 00 00 00       	pushq  $0x6
    209b:	e9 80 ff ff ff       	jmpq   2020 <.plt>

00000000000020a0 <sgx_destroy_enclave@plt>:
    20a0:	ff 25 7a 5e 00 00    	jmpq   *0x5e7a(%rip)        # 7f20 <sgx_destroy_enclave>
    20a6:	68 07 00 00 00       	pushq  $0x7
    20ab:	e9 70 ff ff ff       	jmpq   2020 <.plt>

00000000000020b0 <memset@plt>:
    20b0:	ff 25 72 5e 00 00    	jmpq   *0x5e72(%rip)        # 7f28 <memset@GLIBC_2.2.5>
    20b6:	68 08 00 00 00       	pushq  $0x8
    20bb:	e9 60 ff ff ff       	jmpq   2020 <.plt>

00000000000020c0 <abort@plt>:
    20c0:	ff 25 6a 5e 00 00    	jmpq   *0x5e6a(%rip)        # 7f30 <abort@GLIBC_2.2.5>
    20c6:	68 09 00 00 00       	pushq  $0x9
    20cb:	e9 50 ff ff ff       	jmpq   2020 <.plt>

00000000000020d0 <sgx_ecall@plt>:
    20d0:	ff 25 62 5e 00 00    	jmpq   *0x5e62(%rip)        # 7f38 <sgx_ecall>
    20d6:	68 0a 00 00 00       	pushq  $0xa
    20db:	e9 40 ff ff ff       	jmpq   2020 <.plt>

00000000000020e0 <__assert_fail@plt>:
    20e0:	ff 25 5a 5e 00 00    	jmpq   *0x5e5a(%rip)        # 7f40 <__assert_fail@GLIBC_2.2.5>
    20e6:	68 0b 00 00 00       	pushq  $0xb
    20eb:	e9 30 ff ff ff       	jmpq   2020 <.plt>

00000000000020f0 <sgx_create_enclave@plt>:
    20f0:	ff 25 52 5e 00 00    	jmpq   *0x5e52(%rip)        # 7f48 <sgx_create_enclave>
    20f6:	68 0c 00 00 00       	pushq  $0xc
    20fb:	e9 20 ff ff ff       	jmpq   2020 <.plt>

0000000000002100 <std::thread::_M_start_thread(std::unique_ptr<std::thread::_State, std::default_delete<std::thread::_State> >, void (*)())@plt>:
    2100:	ff 25 4a 5e 00 00    	jmpq   *0x5e4a(%rip)        # 7f50 <std::thread::_M_start_thread(std::unique_ptr<std::thread::_State, std::default_delete<std::thread::_State> >, void (*)())@GLIBCXX_3.4.22>
    2106:	68 0d 00 00 00       	pushq  $0xd
    210b:	e9 10 ff ff ff       	jmpq   2020 <.plt>

0000000000002110 <operator delete(void*)@plt>:
    2110:	ff 25 42 5e 00 00    	jmpq   *0x5e42(%rip)        # 7f58 <operator delete(void*)@GLIBCXX_3.4>
    2116:	68 0e 00 00 00       	pushq  $0xe
    211b:	e9 00 ff ff ff       	jmpq   2020 <.plt>

0000000000002120 <operator new(unsigned long)@plt>:
    2120:	ff 25 3a 5e 00 00    	jmpq   *0x5e3a(%rip)        # 7f60 <operator new(unsigned long)@GLIBCXX_3.4>
    2126:	68 0f 00 00 00       	pushq  $0xf
    212b:	e9 f0 fe ff ff       	jmpq   2020 <.plt>

0000000000002130 <sgx_oc_cpuidex@plt>:
    2130:	ff 25 32 5e 00 00    	jmpq   *0x5e32(%rip)        # 7f68 <sgx_oc_cpuidex>
    2136:	68 10 00 00 00       	pushq  $0x10
    213b:	e9 e0 fe ff ff       	jmpq   2020 <.plt>

0000000000002140 <__stack_chk_fail@plt>:
    2140:	ff 25 2a 5e 00 00    	jmpq   *0x5e2a(%rip)        # 7f70 <__stack_chk_fail@GLIBC_2.4>
    2146:	68 11 00 00 00       	pushq  $0x11
    214b:	e9 d0 fe ff ff       	jmpq   2020 <.plt>

0000000000002150 <getchar@plt>:
    2150:	ff 25 22 5e 00 00    	jmpq   *0x5e22(%rip)        # 7f78 <getchar@GLIBC_2.2.5>
    2156:	68 12 00 00 00       	pushq  $0x12
    215b:	e9 c0 fe ff ff       	jmpq   2020 <.plt>

0000000000002160 <strcmp@plt>:
    2160:	ff 25 1a 5e 00 00    	jmpq   *0x5e1a(%rip)        # 7f80 <strcmp@GLIBC_2.2.5>
    2166:	68 13 00 00 00       	pushq  $0x13
    216b:	e9 b0 fe ff ff       	jmpq   2020 <.plt>

0000000000002170 <puts@plt>:
    2170:	ff 25 12 5e 00 00    	jmpq   *0x5e12(%rip)        # 7f88 <puts@GLIBC_2.2.5>
    2176:	68 14 00 00 00       	pushq  $0x14
    217b:	e9 a0 fe ff ff       	jmpq   2020 <.plt>

0000000000002180 <std::thread::join()@plt>:
    2180:	ff 25 0a 5e 00 00    	jmpq   *0x5e0a(%rip)        # 7f90 <std::thread::join()@GLIBCXX_3.4.11>
    2186:	68 15 00 00 00       	pushq  $0x15
    218b:	e9 90 fe ff ff       	jmpq   2020 <.plt>

0000000000002190 <_Unwind_Resume@plt>:
    2190:	ff 25 02 5e 00 00    	jmpq   *0x5e02(%rip)        # 7f98 <_Unwind_Resume@GCC_3.0>
    2196:	68 16 00 00 00       	pushq  $0x16
    219b:	e9 80 fe ff ff       	jmpq   2020 <.plt>

00000000000021a0 <sgx_thread_set_multiple_untrusted_events_ocall@plt>:
    21a0:	ff 25 fa 5d 00 00    	jmpq   *0x5dfa(%rip)        # 7fa0 <sgx_thread_set_multiple_untrusted_events_ocall>
    21a6:	68 17 00 00 00       	pushq  $0x17
    21ab:	e9 70 fe ff ff       	jmpq   2020 <.plt>

00000000000021b0 <sgx_thread_wait_untrusted_event_ocall@plt>:
    21b0:	ff 25 f2 5d 00 00    	jmpq   *0x5df2(%rip)        # 7fa8 <sgx_thread_wait_untrusted_event_ocall>
    21b6:	68 18 00 00 00       	pushq  $0x18
    21bb:	e9 60 fe ff ff       	jmpq   2020 <.plt>

Disassembly of section .plt.got:

00000000000021c0 <__cxa_finalize@plt>:
    21c0:	ff 25 ea 5d 00 00    	jmpq   *0x5dea(%rip)        # 7fb0 <__cxa_finalize@GLIBC_2.2.5>
    21c6:	66 90                	xchg   %ax,%ax

Disassembly of section .text:

00000000000021d0 <_start>:
    21d0:	31 ed                	xor    %ebp,%ebp
    21d2:	49 89 d1             	mov    %rdx,%r9
    21d5:	5e                   	pop    %rsi
    21d6:	48 89 e2             	mov    %rsp,%rdx
    21d9:	48 83 e4 f0          	and    $0xfffffffffffffff0,%rsp
    21dd:	50                   	push   %rax
    21de:	54                   	push   %rsp
    21df:	4c 8d 05 6a 2a 00 00 	lea    0x2a6a(%rip),%r8        # 4c50 <__libc_csu_fini>
    21e6:	48 8d 0d f3 29 00 00 	lea    0x29f3(%rip),%rcx        # 4be0 <__libc_csu_init>
    21ed:	48 8d 3d 33 10 00 00 	lea    0x1033(%rip),%rdi        # 3227 <main>
    21f4:	ff 15 d6 5d 00 00    	callq  *0x5dd6(%rip)        # 7fd0 <__libc_start_main@GLIBC_2.2.5>
    21fa:	f4                   	hlt    
    21fb:	0f 1f 44 00 00       	nopl   0x0(%rax,%rax,1)

0000000000002200 <deregister_tm_clones>:
    2200:	48 8d 3d 89 5f 00 00 	lea    0x5f89(%rip),%rdi        # 8190 <__TMC_END__>
    2207:	55                   	push   %rbp
    2208:	48 8d 05 81 5f 00 00 	lea    0x5f81(%rip),%rax        # 8190 <__TMC_END__>
    220f:	48 39 f8             	cmp    %rdi,%rax
    2212:	48 89 e5             	mov    %rsp,%rbp
    2215:	74 19                	je     2230 <deregister_tm_clones+0x30>
    2217:	48 8b 05 aa 5d 00 00 	mov    0x5daa(%rip),%rax        # 7fc8 <_ITM_deregisterTMCloneTable>
    221e:	48 85 c0             	test   %rax,%rax
    2221:	74 0d                	je     2230 <deregister_tm_clones+0x30>
    2223:	5d                   	pop    %rbp
    2224:	ff e0                	jmpq   *%rax
    2226:	66 2e 0f 1f 84 00 00 	nopw   %cs:0x0(%rax,%rax,1)
    222d:	00 00 00 
    2230:	5d                   	pop    %rbp
    2231:	c3                   	retq   
    2232:	0f 1f 40 00          	nopl   0x0(%rax)
    2236:	66 2e 0f 1f 84 00 00 	nopw   %cs:0x0(%rax,%rax,1)
    223d:	00 00 00 

0000000000002240 <register_tm_clones>:
    2240:	48 8d 3d 49 5f 00 00 	lea    0x5f49(%rip),%rdi        # 8190 <__TMC_END__>
    2247:	48 8d 35 42 5f 00 00 	lea    0x5f42(%rip),%rsi        # 8190 <__TMC_END__>
    224e:	55                   	push   %rbp
    224f:	48 29 fe             	sub    %rdi,%rsi
    2252:	48 89 e5             	mov    %rsp,%rbp
    2255:	48 c1 fe 03          	sar    $0x3,%rsi
    2259:	48 89 f0             	mov    %rsi,%rax
    225c:	48 c1 e8 3f          	shr    $0x3f,%rax
    2260:	48 01 c6             	add    %rax,%rsi
    2263:	48 d1 fe             	sar    %rsi
    2266:	74 18                	je     2280 <register_tm_clones+0x40>
    2268:	48 8b 05 71 5d 00 00 	mov    0x5d71(%rip),%rax        # 7fe0 <_ITM_registerTMCloneTable>
    226f:	48 85 c0             	test   %rax,%rax
    2272:	74 0c                	je     2280 <register_tm_clones+0x40>
    2274:	5d                   	pop    %rbp
    2275:	ff e0                	jmpq   *%rax
    2277:	66 0f 1f 84 00 00 00 	nopw   0x0(%rax,%rax,1)
    227e:	00 00 
    2280:	5d                   	pop    %rbp
    2281:	c3                   	retq   
    2282:	0f 1f 40 00          	nopl   0x0(%rax)
    2286:	66 2e 0f 1f 84 00 00 	nopw   %cs:0x0(%rax,%rax,1)
    228d:	00 00 00 

0000000000002290 <__do_global_dtors_aux>:
    2290:	80 3d f9 5e 00 00 00 	cmpb   $0x0,0x5ef9(%rip)        # 8190 <__TMC_END__>
    2297:	75 2f                	jne    22c8 <__do_global_dtors_aux+0x38>
    2299:	48 83 3d 0f 5d 00 00 	cmpq   $0x0,0x5d0f(%rip)        # 7fb0 <__cxa_finalize@GLIBC_2.2.5>
    22a0:	00 
    22a1:	55                   	push   %rbp
    22a2:	48 89 e5             	mov    %rsp,%rbp
    22a5:	74 0c                	je     22b3 <__do_global_dtors_aux+0x23>
    22a7:	48 8b 3d 5a 5d 00 00 	mov    0x5d5a(%rip),%rdi        # 8008 <__dso_handle>
    22ae:	e8 0d ff ff ff       	callq  21c0 <__cxa_finalize@plt>
    22b3:	e8 48 ff ff ff       	callq  2200 <deregister_tm_clones>
    22b8:	c6 05 d1 5e 00 00 01 	movb   $0x1,0x5ed1(%rip)        # 8190 <__TMC_END__>
    22bf:	5d                   	pop    %rbp
    22c0:	c3                   	retq   
    22c1:	0f 1f 80 00 00 00 00 	nopl   0x0(%rax)
    22c8:	f3 c3                	repz retq 
    22ca:	66 0f 1f 44 00 00    	nopw   0x0(%rax,%rax,1)

00000000000022d0 <frame_dummy>:
    22d0:	55                   	push   %rbp
    22d1:	48 89 e5             	mov    %rsp,%rbp
    22d4:	5d                   	pop    %rbp
    22d5:	e9 66 ff ff ff       	jmpq   2240 <register_tm_clones>

00000000000022da <Enclave_ocall_print_string>:
    22da:	55                   	push   %rbp
    22db:	48 89 e5             	mov    %rsp,%rbp
    22de:	48 83 ec 20          	sub    $0x20,%rsp
    22e2:	48 89 7d e8          	mov    %rdi,-0x18(%rbp)
    22e6:	48 8b 45 e8          	mov    -0x18(%rbp),%rax
    22ea:	48 89 45 f8          	mov    %rax,-0x8(%rbp)
    22ee:	48 8b 45 f8          	mov    -0x8(%rbp),%rax
    22f2:	48 8b 00             	mov    (%rax),%rax
    22f5:	48 89 c7             	mov    %rax,%rdi
    22f8:	e8 03 0f 00 00       	callq  3200 <ocall_print_string>
    22fd:	b8 00 00 00 00       	mov    $0x0,%eax
    2302:	c9                   	leaveq 
    2303:	c3                   	retq   

0000000000002304 <Enclave_ocall_pointer_user_check>:
    2304:	55                   	push   %rbp
    2305:	48 89 e5             	mov    %rsp,%rbp
    2308:	48 83 ec 20          	sub    $0x20,%rsp
    230c:	48 89 7d e8          	mov    %rdi,-0x18(%rbp)
    2310:	48 8b 45 e8          	mov    -0x18(%rbp),%rax
    2314:	48 89 45 f8          	mov    %rax,-0x8(%rbp)
    2318:	48 8b 45 f8          	mov    -0x8(%rbp),%rax
    231c:	48 8b 00             	mov    (%rax),%rax
    231f:	48 89 c7             	mov    %rax,%rdi
    2322:	e8 57 17 00 00       	callq  3a7e <ocall_pointer_user_check>
    2327:	b8 00 00 00 00       	mov    $0x0,%eax
    232c:	c9                   	leaveq 
    232d:	c3                   	retq   

000000000000232e <Enclave_ocall_pointer_in>:
    232e:	55                   	push   %rbp
    232f:	48 89 e5             	mov    %rsp,%rbp
    2332:	48 83 ec 20          	sub    $0x20,%rsp
    2336:	48 89 7d e8          	mov    %rdi,-0x18(%rbp)
    233a:	48 8b 45 e8          	mov    -0x18(%rbp),%rax
    233e:	48 89 45 f8          	mov    %rax,-0x8(%rbp)
    2342:	48 8b 45 f8          	mov    -0x8(%rbp),%rax
    2346:	48 8b 00             	mov    (%rax),%rax
    2349:	48 89 c7             	mov    %rax,%rdi
    234c:	e8 62 17 00 00       	callq  3ab3 <ocall_pointer_in>
    2351:	b8 00 00 00 00       	mov    $0x0,%eax
    2356:	c9                   	leaveq 
    2357:	c3                   	retq   

0000000000002358 <Enclave_ocall_pointer_out>:
    2358:	55                   	push   %rbp
    2359:	48 89 e5             	mov    %rsp,%rbp
    235c:	48 83 ec 20          	sub    $0x20,%rsp
    2360:	48 89 7d e8          	mov    %rdi,-0x18(%rbp)
    2364:	48 8b 45 e8          	mov    -0x18(%rbp),%rax
    2368:	48 89 45 f8          	mov    %rax,-0x8(%rbp)
    236c:	48 8b 45 f8          	mov    -0x8(%rbp),%rax
    2370:	48 8b 00             	mov    (%rax),%rax
    2373:	48 89 c7             	mov    %rax,%rdi
    2376:	e8 4d 17 00 00       	callq  3ac8 <ocall_pointer_out>
    237b:	b8 00 00 00 00       	mov    $0x0,%eax
    2380:	c9                   	leaveq 
    2381:	c3                   	retq   

0000000000002382 <Enclave_ocall_pointer_in_out>:
    2382:	55                   	push   %rbp
    2383:	48 89 e5             	mov    %rsp,%rbp
    2386:	48 83 ec 20          	sub    $0x20,%rsp
    238a:	48 89 7d e8          	mov    %rdi,-0x18(%rbp)
    238e:	48 8b 45 e8          	mov    -0x18(%rbp),%rax
    2392:	48 89 45 f8          	mov    %rax,-0x8(%rbp)
    2396:	48 8b 45 f8          	mov    -0x8(%rbp),%rax
    239a:	48 8b 00             	mov    (%rax),%rax
    239d:	48 89 c7             	mov    %rax,%rdi
    23a0:	e8 38 17 00 00       	callq  3add <ocall_pointer_in_out>
    23a5:	b8 00 00 00 00       	mov    $0x0,%eax
    23aa:	c9                   	leaveq 
    23ab:	c3                   	retq   

00000000000023ac <Enclave_ocall_function_allow>:
    23ac:	55                   	push   %rbp
    23ad:	48 89 e5             	mov    %rsp,%rbp
    23b0:	48 83 ec 10          	sub    $0x10,%rsp
    23b4:	48 89 7d f8          	mov    %rdi,-0x8(%rbp)
    23b8:	48 83 7d f8 00       	cmpq   $0x0,-0x8(%rbp)
    23bd:	74 07                	je     23c6 <Enclave_ocall_function_allow+0x1a>
    23bf:	b8 02 00 00 00       	mov    $0x2,%eax
    23c4:	eb 0a                	jmp    23d0 <Enclave_ocall_function_allow+0x24>
    23c6:	e8 df 1a 00 00       	callq  3eaa <ocall_function_allow>
    23cb:	b8 00 00 00 00       	mov    $0x0,%eax
    23d0:	c9                   	leaveq 
    23d1:	c3                   	retq   

00000000000023d2 <Enclave_sgx_oc_cpuidex>:
    23d2:	55                   	push   %rbp
    23d3:	48 89 e5             	mov    %rsp,%rbp
    23d6:	48 83 ec 20          	sub    $0x20,%rsp
    23da:	48 89 7d e8          	mov    %rdi,-0x18(%rbp)
    23de:	48 8b 45 e8          	mov    -0x18(%rbp),%rax
    23e2:	48 89 45 f8          	mov    %rax,-0x8(%rbp)
    23e6:	48 8b 45 f8          	mov    -0x8(%rbp),%rax
    23ea:	8b 50 0c             	mov    0xc(%rax),%edx
    23ed:	48 8b 45 f8          	mov    -0x8(%rbp),%rax
    23f1:	8b 48 08             	mov    0x8(%rax),%ecx
    23f4:	48 8b 45 f8          	mov    -0x8(%rbp),%rax
    23f8:	48 8b 00             	mov    (%rax),%rax
    23fb:	89 ce                	mov    %ecx,%esi
    23fd:	48 89 c7             	mov    %rax,%rdi
    2400:	e8 2b fd ff ff       	callq  2130 <sgx_oc_cpuidex@plt>
    2405:	b8 00 00 00 00       	mov    $0x0,%eax
    240a:	c9                   	leaveq 
    240b:	c3                   	retq   

000000000000240c <Enclave_sgx_thread_wait_untrusted_event_ocall>:
    240c:	55                   	push   %rbp
    240d:	48 89 e5             	mov    %rsp,%rbp
    2410:	48 83 ec 20          	sub    $0x20,%rsp
    2414:	48 89 7d e8          	mov    %rdi,-0x18(%rbp)
    2418:	48 8b 45 e8          	mov    -0x18(%rbp),%rax
    241c:	48 89 45 f8          	mov    %rax,-0x8(%rbp)
    2420:	48 8b 45 f8          	mov    -0x8(%rbp),%rax
    2424:	48 8b 40 08          	mov    0x8(%rax),%rax
    2428:	48 89 c7             	mov    %rax,%rdi
    242b:	e8 80 fd ff ff       	callq  21b0 <sgx_thread_wait_untrusted_event_ocall@plt>
    2430:	89 c2                	mov    %eax,%edx
    2432:	48 8b 45 f8          	mov    -0x8(%rbp),%rax
    2436:	89 10                	mov    %edx,(%rax)
    2438:	b8 00 00 00 00       	mov    $0x0,%eax
    243d:	c9                   	leaveq 
    243e:	c3                   	retq   

000000000000243f <Enclave_sgx_thread_set_untrusted_event_ocall>:
    243f:	55                   	push   %rbp
    2440:	48 89 e5             	mov    %rsp,%rbp
    2443:	48 83 ec 20          	sub    $0x20,%rsp
    2447:	48 89 7d e8          	mov    %rdi,-0x18(%rbp)
    244b:	48 8b 45 e8          	mov    -0x18(%rbp),%rax
    244f:	48 89 45 f8          	mov    %rax,-0x8(%rbp)
    2453:	48 8b 45 f8          	mov    -0x8(%rbp),%rax
    2457:	48 8b 40 08          	mov    0x8(%rax),%rax
    245b:	48 89 c7             	mov    %rax,%rdi
    245e:	e8 dd fb ff ff       	callq  2040 <sgx_thread_set_untrusted_event_ocall@plt>
    2463:	89 c2                	mov    %eax,%edx
    2465:	48 8b 45 f8          	mov    -0x8(%rbp),%rax
    2469:	89 10                	mov    %edx,(%rax)
    246b:	b8 00 00 00 00       	mov    $0x0,%eax
    2470:	c9                   	leaveq 
    2471:	c3                   	retq   

0000000000002472 <Enclave_sgx_thread_setwait_untrusted_events_ocall>:
    2472:	55                   	push   %rbp
    2473:	48 89 e5             	mov    %rsp,%rbp
    2476:	48 83 ec 20          	sub    $0x20,%rsp
    247a:	48 89 7d e8          	mov    %rdi,-0x18(%rbp)
    247e:	48 8b 45 e8          	mov    -0x18(%rbp),%rax
    2482:	48 89 45 f8          	mov    %rax,-0x8(%rbp)
    2486:	48 8b 45 f8          	mov    -0x8(%rbp),%rax
    248a:	48 8b 50 10          	mov    0x10(%rax),%rdx
    248e:	48 8b 45 f8          	mov    -0x8(%rbp),%rax
    2492:	48 8b 40 08          	mov    0x8(%rax),%rax
    2496:	48 89 d6             	mov    %rdx,%rsi
    2499:	48 89 c7             	mov    %rax,%rdi
    249c:	e8 ef fb ff ff       	callq  2090 <sgx_thread_setwait_untrusted_events_ocall@plt>
    24a1:	89 c2                	mov    %eax,%edx
    24a3:	48 8b 45 f8          	mov    -0x8(%rbp),%rax
    24a7:	89 10                	mov    %edx,(%rax)
    24a9:	b8 00 00 00 00       	mov    $0x0,%eax
    24ae:	c9                   	leaveq 
    24af:	c3                   	retq   

00000000000024b0 <Enclave_sgx_thread_set_multiple_untrusted_events_ocall>:
    24b0:	55                   	push   %rbp
    24b1:	48 89 e5             	mov    %rsp,%rbp
    24b4:	48 83 ec 20          	sub    $0x20,%rsp
    24b8:	48 89 7d e8          	mov    %rdi,-0x18(%rbp)
    24bc:	48 8b 45 e8          	mov    -0x18(%rbp),%rax
    24c0:	48 89 45 f8          	mov    %rax,-0x8(%rbp)
    24c4:	48 8b 45 f8          	mov    -0x8(%rbp),%rax
    24c8:	48 8b 50 10          	mov    0x10(%rax),%rdx
    24cc:	48 8b 45 f8          	mov    -0x8(%rbp),%rax
    24d0:	48 8b 40 08          	mov    0x8(%rax),%rax
    24d4:	48 89 d6             	mov    %rdx,%rsi
    24d7:	48 89 c7             	mov    %rax,%rdi
    24da:	e8 c1 fc ff ff       	callq  21a0 <sgx_thread_set_multiple_untrusted_events_ocall@plt>
    24df:	89 c2                	mov    %eax,%edx
    24e1:	48 8b 45 f8          	mov    -0x8(%rbp),%rax
    24e5:	89 10                	mov    %edx,(%rax)
    24e7:	b8 00 00 00 00       	mov    $0x0,%eax
    24ec:	c9                   	leaveq 
    24ed:	c3                   	retq   

00000000000024ee <ecall_type_char>:
    24ee:	55                   	push   %rbp
    24ef:	48 89 e5             	mov    %rsp,%rbp
    24f2:	48 83 ec 20          	sub    $0x20,%rsp
    24f6:	48 89 7d e8          	mov    %rdi,-0x18(%rbp)
    24fa:	89 f0                	mov    %esi,%eax
    24fc:	88 45 e4             	mov    %al,-0x1c(%rbp)
    24ff:	64 48 8b 04 25 28 00 	mov    %fs:0x28,%rax
    2506:	00 00 
    2508:	48 89 45 f8          	mov    %rax,-0x8(%rbp)
    250c:	31 c0                	xor    %eax,%eax
    250e:	0f b6 45 e4          	movzbl -0x1c(%rbp),%eax
    2512:	88 45 f3             	mov    %al,-0xd(%rbp)
    2515:	48 8d 55 f3          	lea    -0xd(%rbp),%rdx
    2519:	48 8b 45 e8          	mov    -0x18(%rbp),%rax
    251d:	48 89 d1             	mov    %rdx,%rcx
    2520:	48 8d 15 d9 56 00 00 	lea    0x56d9(%rip),%rdx        # 7c00 <ocall_table_Enclave>
    2527:	be 00 00 00 00       	mov    $0x0,%esi
    252c:	48 89 c7             	mov    %rax,%rdi
    252f:	e8 9c fb ff ff       	callq  20d0 <sgx_ecall@plt>
    2534:	89 45 f4             	mov    %eax,-0xc(%rbp)
    2537:	8b 45 f4             	mov    -0xc(%rbp),%eax
    253a:	48 8b 4d f8          	mov    -0x8(%rbp),%rcx
    253e:	64 48 33 0c 25 28 00 	xor    %fs:0x28,%rcx
    2545:	00 00 
    2547:	74 05                	je     254e <ecall_type_char+0x60>
    2549:	e8 f2 fb ff ff       	callq  2140 <__stack_chk_fail@plt>
    254e:	c9                   	leaveq 
    254f:	c3                   	retq   

0000000000002550 <ecall_type_int>:
    2550:	55                   	push   %rbp
    2551:	48 89 e5             	mov    %rsp,%rbp
    2554:	48 83 ec 20          	sub    $0x20,%rsp
    2558:	48 89 7d e8          	mov    %rdi,-0x18(%rbp)
    255c:	89 75 e4             	mov    %esi,-0x1c(%rbp)
    255f:	64 48 8b 04 25 28 00 	mov    %fs:0x28,%rax
    2566:	00 00 
    2568:	48 89 45 f8          	mov    %rax,-0x8(%rbp)
    256c:	31 c0                	xor    %eax,%eax
    256e:	8b 45 e4             	mov    -0x1c(%rbp),%eax
    2571:	89 45 f0             	mov    %eax,-0x10(%rbp)
    2574:	48 8d 55 f0          	lea    -0x10(%rbp),%rdx
    2578:	48 8b 45 e8          	mov    -0x18(%rbp),%rax
    257c:	48 89 d1             	mov    %rdx,%rcx
    257f:	48 8d 15 7a 56 00 00 	lea    0x567a(%rip),%rdx        # 7c00 <ocall_table_Enclave>
    2586:	be 01 00 00 00       	mov    $0x1,%esi
    258b:	48 89 c7             	mov    %rax,%rdi
    258e:	e8 3d fb ff ff       	callq  20d0 <sgx_ecall@plt>
    2593:	89 45 f4             	mov    %eax,-0xc(%rbp)
    2596:	8b 45 f4             	mov    -0xc(%rbp),%eax
    2599:	48 8b 4d f8          	mov    -0x8(%rbp),%rcx
    259d:	64 48 33 0c 25 28 00 	xor    %fs:0x28,%rcx
    25a4:	00 00 
    25a6:	74 05                	je     25ad <ecall_type_int+0x5d>
    25a8:	e8 93 fb ff ff       	callq  2140 <__stack_chk_fail@plt>
    25ad:	c9                   	leaveq 
    25ae:	c3                   	retq   

00000000000025af <ecall_type_float>:
    25af:	55                   	push   %rbp
    25b0:	48 89 e5             	mov    %rsp,%rbp
    25b3:	48 83 ec 20          	sub    $0x20,%rsp
    25b7:	48 89 7d e8          	mov    %rdi,-0x18(%rbp)
    25bb:	f3 0f 11 45 e4       	movss  %xmm0,-0x1c(%rbp)
    25c0:	64 48 8b 04 25 28 00 	mov    %fs:0x28,%rax
    25c7:	00 00 
    25c9:	48 89 45 f8          	mov    %rax,-0x8(%rbp)
    25cd:	31 c0                	xor    %eax,%eax
    25cf:	f3 0f 10 45 e4       	movss  -0x1c(%rbp),%xmm0
    25d4:	f3 0f 11 45 f0       	movss  %xmm0,-0x10(%rbp)
    25d9:	48 8d 55 f0          	lea    -0x10(%rbp),%rdx
    25dd:	48 8b 45 e8          	mov    -0x18(%rbp),%rax
    25e1:	48 89 d1             	mov    %rdx,%rcx
    25e4:	48 8d 15 15 56 00 00 	lea    0x5615(%rip),%rdx        # 7c00 <ocall_table_Enclave>
    25eb:	be 02 00 00 00       	mov    $0x2,%esi
    25f0:	48 89 c7             	mov    %rax,%rdi
    25f3:	e8 d8 fa ff ff       	callq  20d0 <sgx_ecall@plt>
    25f8:	89 45 f4             	mov    %eax,-0xc(%rbp)
    25fb:	8b 45 f4             	mov    -0xc(%rbp),%eax
    25fe:	48 8b 4d f8          	mov    -0x8(%rbp),%rcx
    2602:	64 48 33 0c 25 28 00 	xor    %fs:0x28,%rcx
    2609:	00 00 
    260b:	74 05                	je     2612 <ecall_type_float+0x63>
    260d:	e8 2e fb ff ff       	callq  2140 <__stack_chk_fail@plt>
    2612:	c9                   	leaveq 
    2613:	c3                   	retq   

0000000000002614 <ecall_type_double>:
    2614:	55                   	push   %rbp
    2615:	48 89 e5             	mov    %rsp,%rbp
    2618:	48 83 ec 30          	sub    $0x30,%rsp
    261c:	48 89 7d d8          	mov    %rdi,-0x28(%rbp)
    2620:	f2 0f 11 45 d0       	movsd  %xmm0,-0x30(%rbp)
    2625:	64 48 8b 04 25 28 00 	mov    %fs:0x28,%rax
    262c:	00 00 
    262e:	48 89 45 f8          	mov    %rax,-0x8(%rbp)
    2632:	31 c0                	xor    %eax,%eax
    2634:	f2 0f 10 45 d0       	movsd  -0x30(%rbp),%xmm0
    2639:	f2 0f 11 45 f0       	movsd  %xmm0,-0x10(%rbp)
    263e:	48 8d 55 f0          	lea    -0x10(%rbp),%rdx
    2642:	48 8b 45 d8          	mov    -0x28(%rbp),%rax
    2646:	48 89 d1             	mov    %rdx,%rcx
    2649:	48 8d 15 b0 55 00 00 	lea    0x55b0(%rip),%rdx        # 7c00 <ocall_table_Enclave>
    2650:	be 03 00 00 00       	mov    $0x3,%esi
    2655:	48 89 c7             	mov    %rax,%rdi
    2658:	e8 73 fa ff ff       	callq  20d0 <sgx_ecall@plt>
    265d:	89 45 ec             	mov    %eax,-0x14(%rbp)
    2660:	8b 45 ec             	mov    -0x14(%rbp),%eax
    2663:	48 8b 4d f8          	mov    -0x8(%rbp),%rcx
    2667:	64 48 33 0c 25 28 00 	xor    %fs:0x28,%rcx
    266e:	00 00 
    2670:	74 05                	je     2677 <ecall_type_double+0x63>
    2672:	e8 c9 fa ff ff       	callq  2140 <__stack_chk_fail@plt>
    2677:	c9                   	leaveq 
    2678:	c3                   	retq   

0000000000002679 <ecall_type_size_t>:
    2679:	55                   	push   %rbp
    267a:	48 89 e5             	mov    %rsp,%rbp
    267d:	48 83 ec 30          	sub    $0x30,%rsp
    2681:	48 89 7d d8          	mov    %rdi,-0x28(%rbp)
    2685:	48 89 75 d0          	mov    %rsi,-0x30(%rbp)
    2689:	64 48 8b 04 25 28 00 	mov    %fs:0x28,%rax
    2690:	00 00 
    2692:	48 89 45 f8          	mov    %rax,-0x8(%rbp)
    2696:	31 c0                	xor    %eax,%eax
    2698:	48 8b 45 d0          	mov    -0x30(%rbp),%rax
    269c:	48 89 45 f0          	mov    %rax,-0x10(%rbp)
    26a0:	48 8d 55 f0          	lea    -0x10(%rbp),%rdx
    26a4:	48 8b 45 d8          	mov    -0x28(%rbp),%rax
    26a8:	48 89 d1             	mov    %rdx,%rcx
    26ab:	48 8d 15 4e 55 00 00 	lea    0x554e(%rip),%rdx        # 7c00 <ocall_table_Enclave>
    26b2:	be 04 00 00 00       	mov    $0x4,%esi
    26b7:	48 89 c7             	mov    %rax,%rdi
    26ba:	e8 11 fa ff ff       	callq  20d0 <sgx_ecall@plt>
    26bf:	89 45 ec             	mov    %eax,-0x14(%rbp)
    26c2:	8b 45 ec             	mov    -0x14(%rbp),%eax
    26c5:	48 8b 4d f8          	mov    -0x8(%rbp),%rcx
    26c9:	64 48 33 0c 25 28 00 	xor    %fs:0x28,%rcx
    26d0:	00 00 
    26d2:	74 05                	je     26d9 <ecall_type_size_t+0x60>
    26d4:	e8 67 fa ff ff       	callq  2140 <__stack_chk_fail@plt>
    26d9:	c9                   	leaveq 
    26da:	c3                   	retq   

00000000000026db <ecall_type_wchar_t>:
    26db:	55                   	push   %rbp
    26dc:	48 89 e5             	mov    %rsp,%rbp
    26df:	48 83 ec 20          	sub    $0x20,%rsp
    26e3:	48 89 7d e8          	mov    %rdi,-0x18(%rbp)
    26e7:	89 75 e4             	mov    %esi,-0x1c(%rbp)
    26ea:	64 48 8b 04 25 28 00 	mov    %fs:0x28,%rax
    26f1:	00 00 
    26f3:	48 89 45 f8          	mov    %rax,-0x8(%rbp)
    26f7:	31 c0                	xor    %eax,%eax
    26f9:	8b 45 e4             	mov    -0x1c(%rbp),%eax
    26fc:	89 45 f0             	mov    %eax,-0x10(%rbp)
    26ff:	48 8d 55 f0          	lea    -0x10(%rbp),%rdx
    2703:	48 8b 45 e8          	mov    -0x18(%rbp),%rax
    2707:	48 89 d1             	mov    %rdx,%rcx
    270a:	48 8d 15 ef 54 00 00 	lea    0x54ef(%rip),%rdx        # 7c00 <ocall_table_Enclave>
    2711:	be 05 00 00 00       	mov    $0x5,%esi
    2716:	48 89 c7             	mov    %rax,%rdi
    2719:	e8 b2 f9 ff ff       	callq  20d0 <sgx_ecall@plt>
    271e:	89 45 f4             	mov    %eax,-0xc(%rbp)
    2721:	8b 45 f4             	mov    -0xc(%rbp),%eax
    2724:	48 8b 4d f8          	mov    -0x8(%rbp),%rcx
    2728:	64 48 33 0c 25 28 00 	xor    %fs:0x28,%rcx
    272f:	00 00 
    2731:	74 05                	je     2738 <ecall_type_wchar_t+0x5d>
    2733:	e8 08 fa ff ff       	callq  2140 <__stack_chk_fail@plt>
    2738:	c9                   	leaveq 
    2739:	c3                   	retq   

000000000000273a <ecall_type_struct>:
    273a:	55                   	push   %rbp
    273b:	48 89 e5             	mov    %rsp,%rbp
    273e:	48 83 ec 50          	sub    $0x50,%rsp
    2742:	48 89 7d c8          	mov    %rdi,-0x38(%rbp)
    2746:	89 f0                	mov    %esi,%eax
    2748:	48 89 d1             	mov    %rdx,%rcx
    274b:	48 89 ca             	mov    %rcx,%rdx
    274e:	48 89 45 b0          	mov    %rax,-0x50(%rbp)
    2752:	48 89 55 b8          	mov    %rdx,-0x48(%rbp)
    2756:	64 48 8b 04 25 28 00 	mov    %fs:0x28,%rax
    275d:	00 00 
    275f:	48 89 45 f8          	mov    %rax,-0x8(%rbp)
    2763:	31 c0                	xor    %eax,%eax
    2765:	48 8b 45 b0          	mov    -0x50(%rbp),%rax
    2769:	48 8b 55 b8          	mov    -0x48(%rbp),%rdx
    276d:	48 89 45 e0          	mov    %rax,-0x20(%rbp)
    2771:	48 89 55 e8          	mov    %rdx,-0x18(%rbp)
    2775:	48 8d 55 e0          	lea    -0x20(%rbp),%rdx
    2779:	48 8b 45 c8          	mov    -0x38(%rbp),%rax
    277d:	48 89 d1             	mov    %rdx,%rcx
    2780:	48 8d 15 79 54 00 00 	lea    0x5479(%rip),%rdx        # 7c00 <ocall_table_Enclave>
    2787:	be 06 00 00 00       	mov    $0x6,%esi
    278c:	48 89 c7             	mov    %rax,%rdi
    278f:	e8 3c f9 ff ff       	callq  20d0 <sgx_ecall@plt>
    2794:	89 45 dc             	mov    %eax,-0x24(%rbp)
    2797:	8b 45 dc             	mov    -0x24(%rbp),%eax
    279a:	48 8b 75 f8          	mov    -0x8(%rbp),%rsi
    279e:	64 48 33 34 25 28 00 	xor    %fs:0x28,%rsi
    27a5:	00 00 
    27a7:	74 05                	je     27ae <ecall_type_struct+0x74>
    27a9:	e8 92 f9 ff ff       	callq  2140 <__stack_chk_fail@plt>
    27ae:	c9                   	leaveq 
    27af:	c3                   	retq   

00000000000027b0 <ecall_type_enum_union>:
    27b0:	55                   	push   %rbp
    27b1:	48 89 e5             	mov    %rsp,%rbp
    27b4:	48 83 ec 50          	sub    $0x50,%rsp
    27b8:	48 89 7d c8          	mov    %rdi,-0x38(%rbp)
    27bc:	89 75 c4             	mov    %esi,-0x3c(%rbp)
    27bf:	48 89 55 b8          	mov    %rdx,-0x48(%rbp)
    27c3:	64 48 8b 04 25 28 00 	mov    %fs:0x28,%rax
    27ca:	00 00 
    27cc:	48 89 45 f8          	mov    %rax,-0x8(%rbp)
    27d0:	31 c0                	xor    %eax,%eax
    27d2:	8b 45 c4             	mov    -0x3c(%rbp),%eax
    27d5:	89 45 e0             	mov    %eax,-0x20(%rbp)
    27d8:	48 8b 45 b8          	mov    -0x48(%rbp),%rax
    27dc:	48 89 45 e8          	mov    %rax,-0x18(%rbp)
    27e0:	48 8d 55 e0          	lea    -0x20(%rbp),%rdx
    27e4:	48 8b 45 c8          	mov    -0x38(%rbp),%rax
    27e8:	48 89 d1             	mov    %rdx,%rcx
    27eb:	48 8d 15 0e 54 00 00 	lea    0x540e(%rip),%rdx        # 7c00 <ocall_table_Enclave>
    27f2:	be 07 00 00 00       	mov    $0x7,%esi
    27f7:	48 89 c7             	mov    %rax,%rdi
    27fa:	e8 d1 f8 ff ff       	callq  20d0 <sgx_ecall@plt>
    27ff:	89 45 dc             	mov    %eax,-0x24(%rbp)
    2802:	8b 45 dc             	mov    -0x24(%rbp),%eax
    2805:	48 8b 4d f8          	mov    -0x8(%rbp),%rcx
    2809:	64 48 33 0c 25 28 00 	xor    %fs:0x28,%rcx
    2810:	00 00 
    2812:	74 05                	je     2819 <ecall_type_enum_union+0x69>
    2814:	e8 27 f9 ff ff       	callq  2140 <__stack_chk_fail@plt>
    2819:	c9                   	leaveq 
    281a:	c3                   	retq   

000000000000281b <ecall_pointer_user_check>:
    281b:	55                   	push   %rbp
    281c:	48 89 e5             	mov    %rsp,%rbp
    281f:	48 83 ec 50          	sub    $0x50,%rsp
    2823:	48 89 7d c8          	mov    %rdi,-0x38(%rbp)
    2827:	48 89 75 c0          	mov    %rsi,-0x40(%rbp)
    282b:	48 89 55 b8          	mov    %rdx,-0x48(%rbp)
    282f:	48 89 4d b0          	mov    %rcx,-0x50(%rbp)
    2833:	64 48 8b 04 25 28 00 	mov    %fs:0x28,%rax
    283a:	00 00 
    283c:	48 89 45 f8          	mov    %rax,-0x8(%rbp)
    2840:	31 c0                	xor    %eax,%eax
    2842:	48 8b 45 b8          	mov    -0x48(%rbp),%rax
    2846:	48 89 45 e8          	mov    %rax,-0x18(%rbp)
    284a:	48 8b 45 b0          	mov    -0x50(%rbp),%rax
    284e:	48 89 45 f0          	mov    %rax,-0x10(%rbp)
    2852:	48 8d 55 e0          	lea    -0x20(%rbp),%rdx
    2856:	48 8b 45 c8          	mov    -0x38(%rbp),%rax
    285a:	48 89 d1             	mov    %rdx,%rcx
    285d:	48 8d 15 9c 53 00 00 	lea    0x539c(%rip),%rdx        # 7c00 <ocall_table_Enclave>
    2864:	be 08 00 00 00       	mov    $0x8,%esi
    2869:	48 89 c7             	mov    %rax,%rdi
    286c:	e8 5f f8 ff ff       	callq  20d0 <sgx_ecall@plt>
    2871:	89 45 dc             	mov    %eax,-0x24(%rbp)
    2874:	83 7d dc 00          	cmpl   $0x0,-0x24(%rbp)
    2878:	75 12                	jne    288c <ecall_pointer_user_check+0x71>
    287a:	48 83 7d c0 00       	cmpq   $0x0,-0x40(%rbp)
    287f:	74 0b                	je     288c <ecall_pointer_user_check+0x71>
    2881:	48 8b 55 e0          	mov    -0x20(%rbp),%rdx
    2885:	48 8b 45 c0          	mov    -0x40(%rbp),%rax
    2889:	48 89 10             	mov    %rdx,(%rax)
    288c:	8b 45 dc             	mov    -0x24(%rbp),%eax
    288f:	48 8b 4d f8          	mov    -0x8(%rbp),%rcx
    2893:	64 48 33 0c 25 28 00 	xor    %fs:0x28,%rcx
    289a:	00 00 
    289c:	74 05                	je     28a3 <ecall_pointer_user_check+0x88>
    289e:	e8 9d f8 ff ff       	callq  2140 <__stack_chk_fail@plt>
    28a3:	c9                   	leaveq 
    28a4:	c3                   	retq   

00000000000028a5 <ecall_pointer_in>:
    28a5:	55                   	push   %rbp
    28a6:	48 89 e5             	mov    %rsp,%rbp
    28a9:	48 83 ec 30          	sub    $0x30,%rsp
    28ad:	48 89 7d d8          	mov    %rdi,-0x28(%rbp)
    28b1:	48 89 75 d0          	mov    %rsi,-0x30(%rbp)
    28b5:	64 48 8b 04 25 28 00 	mov    %fs:0x28,%rax
    28bc:	00 00 
    28be:	48 89 45 f8          	mov    %rax,-0x8(%rbp)
    28c2:	31 c0                	xor    %eax,%eax
    28c4:	48 8b 45 d0          	mov    -0x30(%rbp),%rax
    28c8:	48 89 45 f0          	mov    %rax,-0x10(%rbp)
    28cc:	48 8d 55 f0          	lea    -0x10(%rbp),%rdx
    28d0:	48 8b 45 d8          	mov    -0x28(%rbp),%rax
    28d4:	48 89 d1             	mov    %rdx,%rcx
    28d7:	48 8d 15 22 53 00 00 	lea    0x5322(%rip),%rdx        # 7c00 <ocall_table_Enclave>
    28de:	be 09 00 00 00       	mov    $0x9,%esi
    28e3:	48 89 c7             	mov    %rax,%rdi
    28e6:	e8 e5 f7 ff ff       	callq  20d0 <sgx_ecall@plt>
    28eb:	89 45 ec             	mov    %eax,-0x14(%rbp)
    28ee:	8b 45 ec             	mov    -0x14(%rbp),%eax
    28f1:	48 8b 4d f8          	mov    -0x8(%rbp),%rcx
    28f5:	64 48 33 0c 25 28 00 	xor    %fs:0x28,%rcx
    28fc:	00 00 
    28fe:	74 05                	je     2905 <ecall_pointer_in+0x60>
    2900:	e8 3b f8 ff ff       	callq  2140 <__stack_chk_fail@plt>
    2905:	c9                   	leaveq 
    2906:	c3                   	retq   

0000000000002907 <ecall_pointer_out>:
    2907:	55                   	push   %rbp
    2908:	48 89 e5             	mov    %rsp,%rbp
    290b:	48 83 ec 30          	sub    $0x30,%rsp
    290f:	48 89 7d d8          	mov    %rdi,-0x28(%rbp)
    2913:	48 89 75 d0          	mov    %rsi,-0x30(%rbp)
    2917:	64 48 8b 04 25 28 00 	mov    %fs:0x28,%rax
    291e:	00 00 
    2920:	48 89 45 f8          	mov    %rax,-0x8(%rbp)
    2924:	31 c0                	xor    %eax,%eax
    2926:	48 8b 45 d0          	mov    -0x30(%rbp),%rax
    292a:	48 89 45 f0          	mov    %rax,-0x10(%rbp)
    292e:	48 8d 55 f0          	lea    -0x10(%rbp),%rdx
    2932:	48 8b 45 d8          	mov    -0x28(%rbp),%rax
    2936:	48 89 d1             	mov    %rdx,%rcx
    2939:	48 8d 15 c0 52 00 00 	lea    0x52c0(%rip),%rdx        # 7c00 <ocall_table_Enclave>
    2940:	be 0a 00 00 00       	mov    $0xa,%esi
    2945:	48 89 c7             	mov    %rax,%rdi
    2948:	e8 83 f7 ff ff       	callq  20d0 <sgx_ecall@plt>
    294d:	89 45 ec             	mov    %eax,-0x14(%rbp)
    2950:	8b 45 ec             	mov    -0x14(%rbp),%eax
    2953:	48 8b 4d f8          	mov    -0x8(%rbp),%rcx
    2957:	64 48 33 0c 25 28 00 	xor    %fs:0x28,%rcx
    295e:	00 00 
    2960:	74 05                	je     2967 <ecall_pointer_out+0x60>
    2962:	e8 d9 f7 ff ff       	callq  2140 <__stack_chk_fail@plt>
    2967:	c9                   	leaveq 
    2968:	c3                   	retq   

0000000000002969 <ecall_pointer_in_out>:
    2969:	55                   	push   %rbp
    296a:	48 89 e5             	mov    %rsp,%rbp
    296d:	48 83 ec 30          	sub    $0x30,%rsp
    2971:	48 89 7d d8          	mov    %rdi,-0x28(%rbp)
    2975:	48 89 75 d0          	mov    %rsi,-0x30(%rbp)
    2979:	64 48 8b 04 25 28 00 	mov    %fs:0x28,%rax
    2980:	00 00 
    2982:	48 89 45 f8          	mov    %rax,-0x8(%rbp)
    2986:	31 c0                	xor    %eax,%eax
    2988:	48 8b 45 d0          	mov    -0x30(%rbp),%rax
    298c:	48 89 45 f0          	mov    %rax,-0x10(%rbp)
    2990:	48 8d 55 f0          	lea    -0x10(%rbp),%rdx
    2994:	48 8b 45 d8          	mov    -0x28(%rbp),%rax
    2998:	48 89 d1             	mov    %rdx,%rcx
    299b:	48 8d 15 5e 52 00 00 	lea    0x525e(%rip),%rdx        # 7c00 <ocall_table_Enclave>
    29a2:	be 0b 00 00 00       	mov    $0xb,%esi
    29a7:	48 89 c7             	mov    %rax,%rdi
    29aa:	e8 21 f7 ff ff       	callq  20d0 <sgx_ecall@plt>
    29af:	89 45 ec             	mov    %eax,-0x14(%rbp)
    29b2:	8b 45 ec             	mov    -0x14(%rbp),%eax
    29b5:	48 8b 4d f8          	mov    -0x8(%rbp),%rcx
    29b9:	64 48 33 0c 25 28 00 	xor    %fs:0x28,%rcx
    29c0:	00 00 
    29c2:	74 05                	je     29c9 <ecall_pointer_in_out+0x60>
    29c4:	e8 77 f7 ff ff       	callq  2140 <__stack_chk_fail@plt>
    29c9:	c9                   	leaveq 
    29ca:	c3                   	retq   

00000000000029cb <ecall_pointer_string>:
    29cb:	55                   	push   %rbp
    29cc:	48 89 e5             	mov    %rsp,%rbp
    29cf:	48 83 ec 40          	sub    $0x40,%rsp
    29d3:	48 89 7d c8          	mov    %rdi,-0x38(%rbp)
    29d7:	48 89 75 c0          	mov    %rsi,-0x40(%rbp)
    29db:	64 48 8b 04 25 28 00 	mov    %fs:0x28,%rax
    29e2:	00 00 
    29e4:	48 89 45 f8          	mov    %rax,-0x8(%rbp)
    29e8:	31 c0                	xor    %eax,%eax
    29ea:	48 8b 45 c0          	mov    -0x40(%rbp),%rax
    29ee:	48 89 45 e0          	mov    %rax,-0x20(%rbp)
    29f2:	48 83 7d c0 00       	cmpq   $0x0,-0x40(%rbp)
    29f7:	74 12                	je     2a0b <ecall_pointer_string+0x40>
    29f9:	48 8b 45 c0          	mov    -0x40(%rbp),%rax
    29fd:	48 89 c7             	mov    %rax,%rdi
    2a00:	e8 5b f6 ff ff       	callq  2060 <strlen@plt>
    2a05:	48 83 c0 01          	add    $0x1,%rax
    2a09:	eb 05                	jmp    2a10 <ecall_pointer_string+0x45>
    2a0b:	b8 00 00 00 00       	mov    $0x0,%eax
    2a10:	48 89 45 e8          	mov    %rax,-0x18(%rbp)
    2a14:	48 8d 55 e0          	lea    -0x20(%rbp),%rdx
    2a18:	48 8b 45 c8          	mov    -0x38(%rbp),%rax
    2a1c:	48 89 d1             	mov    %rdx,%rcx
    2a1f:	48 8d 15 da 51 00 00 	lea    0x51da(%rip),%rdx        # 7c00 <ocall_table_Enclave>
    2a26:	be 0c 00 00 00       	mov    $0xc,%esi
    2a2b:	48 89 c7             	mov    %rax,%rdi
    2a2e:	e8 9d f6 ff ff       	callq  20d0 <sgx_ecall@plt>
    2a33:	89 45 dc             	mov    %eax,-0x24(%rbp)
    2a36:	8b 45 dc             	mov    -0x24(%rbp),%eax
    2a39:	48 8b 4d f8          	mov    -0x8(%rbp),%rcx
    2a3d:	64 48 33 0c 25 28 00 	xor    %fs:0x28,%rcx
    2a44:	00 00 
    2a46:	74 05                	je     2a4d <ecall_pointer_string+0x82>
    2a48:	e8 f3 f6 ff ff       	callq  2140 <__stack_chk_fail@plt>
    2a4d:	c9                   	leaveq 
    2a4e:	c3                   	retq   

0000000000002a4f <ecall_pointer_string_const>:
    2a4f:	55                   	push   %rbp
    2a50:	48 89 e5             	mov    %rsp,%rbp
    2a53:	48 83 ec 40          	sub    $0x40,%rsp
    2a57:	48 89 7d c8          	mov    %rdi,-0x38(%rbp)
    2a5b:	48 89 75 c0          	mov    %rsi,-0x40(%rbp)
    2a5f:	64 48 8b 04 25 28 00 	mov    %fs:0x28,%rax
    2a66:	00 00 
    2a68:	48 89 45 f8          	mov    %rax,-0x8(%rbp)
    2a6c:	31 c0                	xor    %eax,%eax
    2a6e:	48 8b 45 c0          	mov    -0x40(%rbp),%rax
    2a72:	48 89 45 e0          	mov    %rax,-0x20(%rbp)
    2a76:	48 83 7d c0 00       	cmpq   $0x0,-0x40(%rbp)
    2a7b:	74 12                	je     2a8f <ecall_pointer_string_const+0x40>
    2a7d:	48 8b 45 c0          	mov    -0x40(%rbp),%rax
    2a81:	48 89 c7             	mov    %rax,%rdi
    2a84:	e8 d7 f5 ff ff       	callq  2060 <strlen@plt>
    2a89:	48 83 c0 01          	add    $0x1,%rax
    2a8d:	eb 05                	jmp    2a94 <ecall_pointer_string_const+0x45>
    2a8f:	b8 00 00 00 00       	mov    $0x0,%eax
    2a94:	48 89 45 e8          	mov    %rax,-0x18(%rbp)
    2a98:	48 8d 55 e0          	lea    -0x20(%rbp),%rdx
    2a9c:	48 8b 45 c8          	mov    -0x38(%rbp),%rax
    2aa0:	48 89 d1             	mov    %rdx,%rcx
    2aa3:	48 8d 15 56 51 00 00 	lea    0x5156(%rip),%rdx        # 7c00 <ocall_table_Enclave>
    2aaa:	be 0d 00 00 00       	mov    $0xd,%esi
    2aaf:	48 89 c7             	mov    %rax,%rdi
    2ab2:	e8 19 f6 ff ff       	callq  20d0 <sgx_ecall@plt>
    2ab7:	89 45 dc             	mov    %eax,-0x24(%rbp)
    2aba:	8b 45 dc             	mov    -0x24(%rbp),%eax
    2abd:	48 8b 4d f8          	mov    -0x8(%rbp),%rcx
    2ac1:	64 48 33 0c 25 28 00 	xor    %fs:0x28,%rcx
    2ac8:	00 00 
    2aca:	74 05                	je     2ad1 <ecall_pointer_string_const+0x82>
    2acc:	e8 6f f6 ff ff       	callq  2140 <__stack_chk_fail@plt>
    2ad1:	c9                   	leaveq 
    2ad2:	c3                   	retq   

0000000000002ad3 <ecall_pointer_size>:
    2ad3:	55                   	push   %rbp
    2ad4:	48 89 e5             	mov    %rsp,%rbp
    2ad7:	48 83 ec 50          	sub    $0x50,%rsp
    2adb:	48 89 7d c8          	mov    %rdi,-0x38(%rbp)
    2adf:	48 89 75 c0          	mov    %rsi,-0x40(%rbp)
    2ae3:	48 89 55 b8          	mov    %rdx,-0x48(%rbp)
    2ae7:	64 48 8b 04 25 28 00 	mov    %fs:0x28,%rax
    2aee:	00 00 
    2af0:	48 89 45 f8          	mov    %rax,-0x8(%rbp)
    2af4:	31 c0                	xor    %eax,%eax
    2af6:	48 8b 45 c0          	mov    -0x40(%rbp),%rax
    2afa:	48 89 45 e0          	mov    %rax,-0x20(%rbp)
    2afe:	48 8b 45 b8          	mov    -0x48(%rbp),%rax
    2b02:	48 89 45 e8          	mov    %rax,-0x18(%rbp)
    2b06:	48 8d 55 e0          	lea    -0x20(%rbp),%rdx
    2b0a:	48 8b 45 c8          	mov    -0x38(%rbp),%rax
    2b0e:	48 89 d1             	mov    %rdx,%rcx
    2b11:	48 8d 15 e8 50 00 00 	lea    0x50e8(%rip),%rdx        # 7c00 <ocall_table_Enclave>
    2b18:	be 0e 00 00 00       	mov    $0xe,%esi
    2b1d:	48 89 c7             	mov    %rax,%rdi
    2b20:	e8 ab f5 ff ff       	callq  20d0 <sgx_ecall@plt>
    2b25:	89 45 dc             	mov    %eax,-0x24(%rbp)
    2b28:	8b 45 dc             	mov    -0x24(%rbp),%eax
    2b2b:	48 8b 4d f8          	mov    -0x8(%rbp),%rcx
    2b2f:	64 48 33 0c 25 28 00 	xor    %fs:0x28,%rcx
    2b36:	00 00 
    2b38:	74 05                	je     2b3f <ecall_pointer_size+0x6c>
    2b3a:	e8 01 f6 ff ff       	callq  2140 <__stack_chk_fail@plt>
    2b3f:	c9                   	leaveq 
    2b40:	c3                   	retq   

0000000000002b41 <ecall_pointer_count>:
    2b41:	55                   	push   %rbp
    2b42:	48 89 e5             	mov    %rsp,%rbp
    2b45:	48 83 ec 50          	sub    $0x50,%rsp
    2b49:	48 89 7d c8          	mov    %rdi,-0x38(%rbp)
    2b4d:	48 89 75 c0          	mov    %rsi,-0x40(%rbp)
    2b51:	48 89 55 b8          	mov    %rdx,-0x48(%rbp)
    2b55:	64 48 8b 04 25 28 00 	mov    %fs:0x28,%rax
    2b5c:	00 00 
    2b5e:	48 89 45 f8          	mov    %rax,-0x8(%rbp)
    2b62:	31 c0                	xor    %eax,%eax
    2b64:	48 8b 45 c0          	mov    -0x40(%rbp),%rax
    2b68:	48 89 45 e0          	mov    %rax,-0x20(%rbp)
    2b6c:	48 8b 45 b8          	mov    -0x48(%rbp),%rax
    2b70:	48 89 45 e8          	mov    %rax,-0x18(%rbp)
    2b74:	48 8d 55 e0          	lea    -0x20(%rbp),%rdx
    2b78:	48 8b 45 c8          	mov    -0x38(%rbp),%rax
    2b7c:	48 89 d1             	mov    %rdx,%rcx
    2b7f:	48 8d 15 7a 50 00 00 	lea    0x507a(%rip),%rdx        # 7c00 <ocall_table_Enclave>
    2b86:	be 0f 00 00 00       	mov    $0xf,%esi
    2b8b:	48 89 c7             	mov    %rax,%rdi
    2b8e:	e8 3d f5 ff ff       	callq  20d0 <sgx_ecall@plt>
    2b93:	89 45 dc             	mov    %eax,-0x24(%rbp)
    2b96:	8b 45 dc             	mov    -0x24(%rbp),%eax
    2b99:	48 8b 4d f8          	mov    -0x8(%rbp),%rcx
    2b9d:	64 48 33 0c 25 28 00 	xor    %fs:0x28,%rcx
    2ba4:	00 00 
    2ba6:	74 05                	je     2bad <ecall_pointer_count+0x6c>
    2ba8:	e8 93 f5 ff ff       	callq  2140 <__stack_chk_fail@plt>
    2bad:	c9                   	leaveq 
    2bae:	c3                   	retq   

0000000000002baf <ecall_pointer_isptr_readonly>:
    2baf:	55                   	push   %rbp
    2bb0:	48 89 e5             	mov    %rsp,%rbp
    2bb3:	48 83 ec 50          	sub    $0x50,%rsp
    2bb7:	48 89 7d c8          	mov    %rdi,-0x38(%rbp)
    2bbb:	48 89 75 c0          	mov    %rsi,-0x40(%rbp)
    2bbf:	48 89 55 b8          	mov    %rdx,-0x48(%rbp)
    2bc3:	64 48 8b 04 25 28 00 	mov    %fs:0x28,%rax
    2bca:	00 00 
    2bcc:	48 89 45 f8          	mov    %rax,-0x8(%rbp)
    2bd0:	31 c0                	xor    %eax,%eax
    2bd2:	48 8b 45 c0          	mov    -0x40(%rbp),%rax
    2bd6:	48 89 45 e0          	mov    %rax,-0x20(%rbp)
    2bda:	48 8b 45 b8          	mov    -0x48(%rbp),%rax
    2bde:	48 89 45 e8          	mov    %rax,-0x18(%rbp)
    2be2:	48 8d 55 e0          	lea    -0x20(%rbp),%rdx
    2be6:	48 8b 45 c8          	mov    -0x38(%rbp),%rax
    2bea:	48 89 d1             	mov    %rdx,%rcx
    2bed:	48 8d 15 0c 50 00 00 	lea    0x500c(%rip),%rdx        # 7c00 <ocall_table_Enclave>
    2bf4:	be 10 00 00 00       	mov    $0x10,%esi
    2bf9:	48 89 c7             	mov    %rax,%rdi
    2bfc:	e8 cf f4 ff ff       	callq  20d0 <sgx_ecall@plt>
    2c01:	89 45 dc             	mov    %eax,-0x24(%rbp)
    2c04:	8b 45 dc             	mov    -0x24(%rbp),%eax
    2c07:	48 8b 4d f8          	mov    -0x8(%rbp),%rcx
    2c0b:	64 48 33 0c 25 28 00 	xor    %fs:0x28,%rcx
    2c12:	00 00 
    2c14:	74 05                	je     2c1b <ecall_pointer_isptr_readonly+0x6c>
    2c16:	e8 25 f5 ff ff       	callq  2140 <__stack_chk_fail@plt>
    2c1b:	c9                   	leaveq 
    2c1c:	c3                   	retq   

0000000000002c1d <ocall_pointer_attr>:
    2c1d:	55                   	push   %rbp
    2c1e:	48 89 e5             	mov    %rsp,%rbp
    2c21:	48 83 ec 20          	sub    $0x20,%rsp
    2c25:	48 89 7d e8          	mov    %rdi,-0x18(%rbp)
    2c29:	48 8b 45 e8          	mov    -0x18(%rbp),%rax
    2c2d:	b9 00 00 00 00       	mov    $0x0,%ecx
    2c32:	48 8d 15 c7 4f 00 00 	lea    0x4fc7(%rip),%rdx        # 7c00 <ocall_table_Enclave>
    2c39:	be 11 00 00 00       	mov    $0x11,%esi
    2c3e:	48 89 c7             	mov    %rax,%rdi
    2c41:	e8 8a f4 ff ff       	callq  20d0 <sgx_ecall@plt>
    2c46:	89 45 fc             	mov    %eax,-0x4(%rbp)
    2c49:	8b 45 fc             	mov    -0x4(%rbp),%eax
    2c4c:	c9                   	leaveq 
    2c4d:	c3                   	retq   

0000000000002c4e <ecall_array_user_check>:
    2c4e:	55                   	push   %rbp
    2c4f:	48 89 e5             	mov    %rsp,%rbp
    2c52:	48 83 ec 30          	sub    $0x30,%rsp
    2c56:	48 89 7d d8          	mov    %rdi,-0x28(%rbp)
    2c5a:	48 89 75 d0          	mov    %rsi,-0x30(%rbp)
    2c5e:	64 48 8b 04 25 28 00 	mov    %fs:0x28,%rax
    2c65:	00 00 
    2c67:	48 89 45 f8          	mov    %rax,-0x8(%rbp)
    2c6b:	31 c0                	xor    %eax,%eax
    2c6d:	48 8b 45 d0          	mov    -0x30(%rbp),%rax
    2c71:	48 89 45 f0          	mov    %rax,-0x10(%rbp)
    2c75:	48 8d 55 f0          	lea    -0x10(%rbp),%rdx
    2c79:	48 8b 45 d8          	mov    -0x28(%rbp),%rax
    2c7d:	48 89 d1             	mov    %rdx,%rcx
    2c80:	48 8d 15 79 4f 00 00 	lea    0x4f79(%rip),%rdx        # 7c00 <ocall_table_Enclave>
    2c87:	be 12 00 00 00       	mov    $0x12,%esi
    2c8c:	48 89 c7             	mov    %rax,%rdi
    2c8f:	e8 3c f4 ff ff       	callq  20d0 <sgx_ecall@plt>
    2c94:	89 45 ec             	mov    %eax,-0x14(%rbp)
    2c97:	8b 45 ec             	mov    -0x14(%rbp),%eax
    2c9a:	48 8b 4d f8          	mov    -0x8(%rbp),%rcx
    2c9e:	64 48 33 0c 25 28 00 	xor    %fs:0x28,%rcx
    2ca5:	00 00 
    2ca7:	74 05                	je     2cae <ecall_array_user_check+0x60>
    2ca9:	e8 92 f4 ff ff       	callq  2140 <__stack_chk_fail@plt>
    2cae:	c9                   	leaveq 
    2caf:	c3                   	retq   

0000000000002cb0 <ecall_array_in>:
    2cb0:	55                   	push   %rbp
    2cb1:	48 89 e5             	mov    %rsp,%rbp
    2cb4:	48 83 ec 30          	sub    $0x30,%rsp
    2cb8:	48 89 7d d8          	mov    %rdi,-0x28(%rbp)
    2cbc:	48 89 75 d0          	mov    %rsi,-0x30(%rbp)
    2cc0:	64 48 8b 04 25 28 00 	mov    %fs:0x28,%rax
    2cc7:	00 00 
    2cc9:	48 89 45 f8          	mov    %rax,-0x8(%rbp)
    2ccd:	31 c0                	xor    %eax,%eax
    2ccf:	48 8b 45 d0          	mov    -0x30(%rbp),%rax
    2cd3:	48 89 45 f0          	mov    %rax,-0x10(%rbp)
    2cd7:	48 8d 55 f0          	lea    -0x10(%rbp),%rdx
    2cdb:	48 8b 45 d8          	mov    -0x28(%rbp),%rax
    2cdf:	48 89 d1             	mov    %rdx,%rcx
    2ce2:	48 8d 15 17 4f 00 00 	lea    0x4f17(%rip),%rdx        # 7c00 <ocall_table_Enclave>
    2ce9:	be 13 00 00 00       	mov    $0x13,%esi
    2cee:	48 89 c7             	mov    %rax,%rdi
    2cf1:	e8 da f3 ff ff       	callq  20d0 <sgx_ecall@plt>
    2cf6:	89 45 ec             	mov    %eax,-0x14(%rbp)
    2cf9:	8b 45 ec             	mov    -0x14(%rbp),%eax
    2cfc:	48 8b 4d f8          	mov    -0x8(%rbp),%rcx
    2d00:	64 48 33 0c 25 28 00 	xor    %fs:0x28,%rcx
    2d07:	00 00 
    2d09:	74 05                	je     2d10 <ecall_array_in+0x60>
    2d0b:	e8 30 f4 ff ff       	callq  2140 <__stack_chk_fail@plt>
    2d10:	c9                   	leaveq 
    2d11:	c3                   	retq   

0000000000002d12 <ecall_array_out>:
    2d12:	55                   	push   %rbp
    2d13:	48 89 e5             	mov    %rsp,%rbp
    2d16:	48 83 ec 30          	sub    $0x30,%rsp
    2d1a:	48 89 7d d8          	mov    %rdi,-0x28(%rbp)
    2d1e:	48 89 75 d0          	mov    %rsi,-0x30(%rbp)
    2d22:	64 48 8b 04 25 28 00 	mov    %fs:0x28,%rax
    2d29:	00 00 
    2d2b:	48 89 45 f8          	mov    %rax,-0x8(%rbp)
    2d2f:	31 c0                	xor    %eax,%eax
    2d31:	48 8b 45 d0          	mov    -0x30(%rbp),%rax
    2d35:	48 89 45 f0          	mov    %rax,-0x10(%rbp)
    2d39:	48 8d 55 f0          	lea    -0x10(%rbp),%rdx
    2d3d:	48 8b 45 d8          	mov    -0x28(%rbp),%rax
    2d41:	48 89 d1             	mov    %rdx,%rcx
    2d44:	48 8d 15 b5 4e 00 00 	lea    0x4eb5(%rip),%rdx        # 7c00 <ocall_table_Enclave>
    2d4b:	be 14 00 00 00       	mov    $0x14,%esi
    2d50:	48 89 c7             	mov    %rax,%rdi
    2d53:	e8 78 f3 ff ff       	callq  20d0 <sgx_ecall@plt>
    2d58:	89 45 ec             	mov    %eax,-0x14(%rbp)
    2d5b:	8b 45 ec             	mov    -0x14(%rbp),%eax
    2d5e:	48 8b 4d f8          	mov    -0x8(%rbp),%rcx
    2d62:	64 48 33 0c 25 28 00 	xor    %fs:0x28,%rcx
    2d69:	00 00 
    2d6b:	74 05                	je     2d72 <ecall_array_out+0x60>
    2d6d:	e8 ce f3 ff ff       	callq  2140 <__stack_chk_fail@plt>
    2d72:	c9                   	leaveq 
    2d73:	c3                   	retq   

0000000000002d74 <ecall_array_in_out>:
    2d74:	55                   	push   %rbp
    2d75:	48 89 e5             	mov    %rsp,%rbp
    2d78:	48 83 ec 30          	sub    $0x30,%rsp
    2d7c:	48 89 7d d8          	mov    %rdi,-0x28(%rbp)
    2d80:	48 89 75 d0          	mov    %rsi,-0x30(%rbp)
    2d84:	64 48 8b 04 25 28 00 	mov    %fs:0x28,%rax
    2d8b:	00 00 
    2d8d:	48 89 45 f8          	mov    %rax,-0x8(%rbp)
    2d91:	31 c0                	xor    %eax,%eax
    2d93:	48 8b 45 d0          	mov    -0x30(%rbp),%rax
    2d97:	48 89 45 f0          	mov    %rax,-0x10(%rbp)
    2d9b:	48 8d 55 f0          	lea    -0x10(%rbp),%rdx
    2d9f:	48 8b 45 d8          	mov    -0x28(%rbp),%rax
    2da3:	48 89 d1             	mov    %rdx,%rcx
    2da6:	48 8d 15 53 4e 00 00 	lea    0x4e53(%rip),%rdx        # 7c00 <ocall_table_Enclave>
    2dad:	be 15 00 00 00       	mov    $0x15,%esi
    2db2:	48 89 c7             	mov    %rax,%rdi
    2db5:	e8 16 f3 ff ff       	callq  20d0 <sgx_ecall@plt>
    2dba:	89 45 ec             	mov    %eax,-0x14(%rbp)
    2dbd:	8b 45 ec             	mov    -0x14(%rbp),%eax
    2dc0:	48 8b 4d f8          	mov    -0x8(%rbp),%rcx
    2dc4:	64 48 33 0c 25 28 00 	xor    %fs:0x28,%rcx
    2dcb:	00 00 
    2dcd:	74 05                	je     2dd4 <ecall_array_in_out+0x60>
    2dcf:	e8 6c f3 ff ff       	callq  2140 <__stack_chk_fail@plt>
    2dd4:	c9                   	leaveq 
    2dd5:	c3                   	retq   

0000000000002dd6 <ecall_array_isary>:
    2dd6:	55                   	push   %rbp
    2dd7:	48 89 e5             	mov    %rsp,%rbp
    2dda:	48 83 ec 30          	sub    $0x30,%rsp
    2dde:	48 89 7d d8          	mov    %rdi,-0x28(%rbp)
    2de2:	48 89 75 d0          	mov    %rsi,-0x30(%rbp)
    2de6:	64 48 8b 04 25 28 00 	mov    %fs:0x28,%rax
    2ded:	00 00 
    2def:	48 89 45 f8          	mov    %rax,-0x8(%rbp)
    2df3:	31 c0                	xor    %eax,%eax
    2df5:	48 8b 45 d0          	mov    -0x30(%rbp),%rax
    2df9:	48 89 45 f0          	mov    %rax,-0x10(%rbp)
    2dfd:	48 8d 55 f0          	lea    -0x10(%rbp),%rdx
    2e01:	48 8b 45 d8          	mov    -0x28(%rbp),%rax
    2e05:	48 89 d1             	mov    %rdx,%rcx
    2e08:	48 8d 15 f1 4d 00 00 	lea    0x4df1(%rip),%rdx        # 7c00 <ocall_table_Enclave>
    2e0f:	be 16 00 00 00       	mov    $0x16,%esi
    2e14:	48 89 c7             	mov    %rax,%rdi
    2e17:	e8 b4 f2 ff ff       	callq  20d0 <sgx_ecall@plt>
    2e1c:	89 45 ec             	mov    %eax,-0x14(%rbp)
    2e1f:	8b 45 ec             	mov    -0x14(%rbp),%eax
    2e22:	48 8b 4d f8          	mov    -0x8(%rbp),%rcx
    2e26:	64 48 33 0c 25 28 00 	xor    %fs:0x28,%rcx
    2e2d:	00 00 
    2e2f:	74 05                	je     2e36 <ecall_array_isary+0x60>
    2e31:	e8 0a f3 ff ff       	callq  2140 <__stack_chk_fail@plt>
    2e36:	c9                   	leaveq 
    2e37:	c3                   	retq   

0000000000002e38 <ecall_function_public>:
    2e38:	55                   	push   %rbp
    2e39:	48 89 e5             	mov    %rsp,%rbp
    2e3c:	48 83 ec 20          	sub    $0x20,%rsp
    2e40:	48 89 7d e8          	mov    %rdi,-0x18(%rbp)
    2e44:	48 8b 45 e8          	mov    -0x18(%rbp),%rax
    2e48:	b9 00 00 00 00       	mov    $0x0,%ecx
    2e4d:	48 8d 15 ac 4d 00 00 	lea    0x4dac(%rip),%rdx        # 7c00 <ocall_table_Enclave>
    2e54:	be 17 00 00 00       	mov    $0x17,%esi
    2e59:	48 89 c7             	mov    %rax,%rdi
    2e5c:	e8 6f f2 ff ff       	callq  20d0 <sgx_ecall@plt>
    2e61:	89 45 fc             	mov    %eax,-0x4(%rbp)
    2e64:	8b 45 fc             	mov    -0x4(%rbp),%eax
    2e67:	c9                   	leaveq 
    2e68:	c3                   	retq   

0000000000002e69 <ecall_function_private>:
    2e69:	55                   	push   %rbp
    2e6a:	48 89 e5             	mov    %rsp,%rbp
    2e6d:	48 83 ec 20          	sub    $0x20,%rsp
    2e71:	48 89 7d e8          	mov    %rdi,-0x18(%rbp)
    2e75:	48 89 75 e0          	mov    %rsi,-0x20(%rbp)
    2e79:	64 48 8b 04 25 28 00 	mov    %fs:0x28,%rax
    2e80:	00 00 
    2e82:	48 89 45 f8          	mov    %rax,-0x8(%rbp)
    2e86:	31 c0                	xor    %eax,%eax
    2e88:	48 8d 55 f0          	lea    -0x10(%rbp),%rdx
    2e8c:	48 8b 45 e8          	mov    -0x18(%rbp),%rax
    2e90:	48 89 d1             	mov    %rdx,%rcx
    2e93:	48 8d 15 66 4d 00 00 	lea    0x4d66(%rip),%rdx        # 7c00 <ocall_table_Enclave>
    2e9a:	be 18 00 00 00       	mov    $0x18,%esi
    2e9f:	48 89 c7             	mov    %rax,%rdi
    2ea2:	e8 29 f2 ff ff       	callq  20d0 <sgx_ecall@plt>
    2ea7:	89 45 f4             	mov    %eax,-0xc(%rbp)
    2eaa:	83 7d f4 00          	cmpl   $0x0,-0xc(%rbp)
    2eae:	75 10                	jne    2ec0 <ecall_function_private+0x57>
    2eb0:	48 83 7d e0 00       	cmpq   $0x0,-0x20(%rbp)
    2eb5:	74 09                	je     2ec0 <ecall_function_private+0x57>
    2eb7:	8b 55 f0             	mov    -0x10(%rbp),%edx
    2eba:	48 8b 45 e0          	mov    -0x20(%rbp),%rax
    2ebe:	89 10                	mov    %edx,(%rax)
    2ec0:	8b 45 f4             	mov    -0xc(%rbp),%eax
    2ec3:	48 8b 4d f8          	mov    -0x8(%rbp),%rcx
    2ec7:	64 48 33 0c 25 28 00 	xor    %fs:0x28,%rcx
    2ece:	00 00 
    2ed0:	74 05                	je     2ed7 <ecall_function_private+0x6e>
    2ed2:	e8 69 f2 ff ff       	callq  2140 <__stack_chk_fail@plt>
    2ed7:	c9                   	leaveq 
    2ed8:	c3                   	retq   

0000000000002ed9 <ecall_malloc_free>:
    2ed9:	55                   	push   %rbp
    2eda:	48 89 e5             	mov    %rsp,%rbp
    2edd:	48 83 ec 20          	sub    $0x20,%rsp
    2ee1:	48 89 7d e8          	mov    %rdi,-0x18(%rbp)
    2ee5:	48 8b 45 e8          	mov    -0x18(%rbp),%rax
    2ee9:	b9 00 00 00 00       	mov    $0x0,%ecx
    2eee:	48 8d 15 0b 4d 00 00 	lea    0x4d0b(%rip),%rdx        # 7c00 <ocall_table_Enclave>
    2ef5:	be 19 00 00 00       	mov    $0x19,%esi
    2efa:	48 89 c7             	mov    %rax,%rdi
    2efd:	e8 ce f1 ff ff       	callq  20d0 <sgx_ecall@plt>
    2f02:	89 45 fc             	mov    %eax,-0x4(%rbp)
    2f05:	8b 45 fc             	mov    -0x4(%rbp),%eax
    2f08:	c9                   	leaveq 
    2f09:	c3                   	retq   

0000000000002f0a <ecall_sgx_cpuid>:
    2f0a:	55                   	push   %rbp
    2f0b:	48 89 e5             	mov    %rsp,%rbp
    2f0e:	48 83 ec 50          	sub    $0x50,%rsp
    2f12:	48 89 7d c8          	mov    %rdi,-0x38(%rbp)
    2f16:	48 89 75 c0          	mov    %rsi,-0x40(%rbp)
    2f1a:	89 55 bc             	mov    %edx,-0x44(%rbp)
    2f1d:	64 48 8b 04 25 28 00 	mov    %fs:0x28,%rax
    2f24:	00 00 
    2f26:	48 89 45 f8          	mov    %rax,-0x8(%rbp)
    2f2a:	31 c0                	xor    %eax,%eax
    2f2c:	48 8b 45 c0          	mov    -0x40(%rbp),%rax
    2f30:	48 89 45 e0          	mov    %rax,-0x20(%rbp)
    2f34:	8b 45 bc             	mov    -0x44(%rbp),%eax
    2f37:	89 45 e8             	mov    %eax,-0x18(%rbp)
    2f3a:	48 8d 55 e0          	lea    -0x20(%rbp),%rdx
    2f3e:	48 8b 45 c8          	mov    -0x38(%rbp),%rax
    2f42:	48 89 d1             	mov    %rdx,%rcx
    2f45:	48 8d 15 b4 4c 00 00 	lea    0x4cb4(%rip),%rdx        # 7c00 <ocall_table_Enclave>
    2f4c:	be 1a 00 00 00       	mov    $0x1a,%esi
    2f51:	48 89 c7             	mov    %rax,%rdi
    2f54:	e8 77 f1 ff ff       	callq  20d0 <sgx_ecall@plt>
    2f59:	89 45 dc             	mov    %eax,-0x24(%rbp)
    2f5c:	8b 45 dc             	mov    -0x24(%rbp),%eax
    2f5f:	48 8b 4d f8          	mov    -0x8(%rbp),%rcx
    2f63:	64 48 33 0c 25 28 00 	xor    %fs:0x28,%rcx
    2f6a:	00 00 
    2f6c:	74 05                	je     2f73 <ecall_sgx_cpuid+0x69>
    2f6e:	e8 cd f1 ff ff       	callq  2140 <__stack_chk_fail@plt>
    2f73:	c9                   	leaveq 
    2f74:	c3                   	retq   

0000000000002f75 <ecall_exception>:
    2f75:	55                   	push   %rbp
    2f76:	48 89 e5             	mov    %rsp,%rbp
    2f79:	48 83 ec 20          	sub    $0x20,%rsp
    2f7d:	48 89 7d e8          	mov    %rdi,-0x18(%rbp)
    2f81:	48 8b 45 e8          	mov    -0x18(%rbp),%rax
    2f85:	b9 00 00 00 00       	mov    $0x0,%ecx
    2f8a:	48 8d 15 6f 4c 00 00 	lea    0x4c6f(%rip),%rdx        # 7c00 <ocall_table_Enclave>
    2f91:	be 1b 00 00 00       	mov    $0x1b,%esi
    2f96:	48 89 c7             	mov    %rax,%rdi
    2f99:	e8 32 f1 ff ff       	callq  20d0 <sgx_ecall@plt>
    2f9e:	89 45 fc             	mov    %eax,-0x4(%rbp)
    2fa1:	8b 45 fc             	mov    -0x4(%rbp),%eax
    2fa4:	c9                   	leaveq 
    2fa5:	c3                   	retq   

0000000000002fa6 <ecall_map>:
    2fa6:	55                   	push   %rbp
    2fa7:	48 89 e5             	mov    %rsp,%rbp
    2faa:	48 83 ec 20          	sub    $0x20,%rsp
    2fae:	48 89 7d e8          	mov    %rdi,-0x18(%rbp)
    2fb2:	48 8b 45 e8          	mov    -0x18(%rbp),%rax
    2fb6:	b9 00 00 00 00       	mov    $0x0,%ecx
    2fbb:	48 8d 15 3e 4c 00 00 	lea    0x4c3e(%rip),%rdx        # 7c00 <ocall_table_Enclave>
    2fc2:	be 1c 00 00 00       	mov    $0x1c,%esi
    2fc7:	48 89 c7             	mov    %rax,%rdi
    2fca:	e8 01 f1 ff ff       	callq  20d0 <sgx_ecall@plt>
    2fcf:	89 45 fc             	mov    %eax,-0x4(%rbp)
    2fd2:	8b 45 fc             	mov    -0x4(%rbp),%eax
    2fd5:	c9                   	leaveq 
    2fd6:	c3                   	retq   

0000000000002fd7 <ecall_increase_counter>:
    2fd7:	55                   	push   %rbp
    2fd8:	48 89 e5             	mov    %rsp,%rbp
    2fdb:	48 83 ec 30          	sub    $0x30,%rsp
    2fdf:	48 89 7d d8          	mov    %rdi,-0x28(%rbp)
    2fe3:	48 89 75 d0          	mov    %rsi,-0x30(%rbp)
    2fe7:	64 48 8b 04 25 28 00 	mov    %fs:0x28,%rax
    2fee:	00 00 
    2ff0:	48 89 45 f8          	mov    %rax,-0x8(%rbp)
    2ff4:	31 c0                	xor    %eax,%eax
    2ff6:	48 8d 55 f0          	lea    -0x10(%rbp),%rdx
    2ffa:	48 8b 45 d8          	mov    -0x28(%rbp),%rax
    2ffe:	48 89 d1             	mov    %rdx,%rcx
    3001:	48 8d 15 f8 4b 00 00 	lea    0x4bf8(%rip),%rdx        # 7c00 <ocall_table_Enclave>
    3008:	be 1d 00 00 00       	mov    $0x1d,%esi
    300d:	48 89 c7             	mov    %rax,%rdi
    3010:	e8 bb f0 ff ff       	callq  20d0 <sgx_ecall@plt>
    3015:	89 45 ec             	mov    %eax,-0x14(%rbp)
    3018:	83 7d ec 00          	cmpl   $0x0,-0x14(%rbp)
    301c:	75 12                	jne    3030 <ecall_increase_counter+0x59>
    301e:	48 83 7d d0 00       	cmpq   $0x0,-0x30(%rbp)
    3023:	74 0b                	je     3030 <ecall_increase_counter+0x59>
    3025:	48 8b 55 f0          	mov    -0x10(%rbp),%rdx
    3029:	48 8b 45 d0          	mov    -0x30(%rbp),%rax
    302d:	48 89 10             	mov    %rdx,(%rax)
    3030:	8b 45 ec             	mov    -0x14(%rbp),%eax
    3033:	48 8b 4d f8          	mov    -0x8(%rbp),%rcx
    3037:	64 48 33 0c 25 28 00 	xor    %fs:0x28,%rcx
    303e:	00 00 
    3040:	74 05                	je     3047 <ecall_increase_counter+0x70>
    3042:	e8 f9 f0 ff ff       	callq  2140 <__stack_chk_fail@plt>
    3047:	c9                   	leaveq 
    3048:	c3                   	retq   

0000000000003049 <ecall_producer>:
    3049:	55                   	push   %rbp
    304a:	48 89 e5             	mov    %rsp,%rbp
    304d:	48 83 ec 20          	sub    $0x20,%rsp
    3051:	48 89 7d e8          	mov    %rdi,-0x18(%rbp)
    3055:	48 8b 45 e8          	mov    -0x18(%rbp),%rax
    3059:	b9 00 00 00 00       	mov    $0x0,%ecx
    305e:	48 8d 15 9b 4b 00 00 	lea    0x4b9b(%rip),%rdx        # 7c00 <ocall_table_Enclave>
    3065:	be 1e 00 00 00       	mov    $0x1e,%esi
    306a:	48 89 c7             	mov    %rax,%rdi
    306d:	e8 5e f0 ff ff       	callq  20d0 <sgx_ecall@plt>
    3072:	89 45 fc             	mov    %eax,-0x4(%rbp)
    3075:	8b 45 fc             	mov    -0x4(%rbp),%eax
    3078:	c9                   	leaveq 
    3079:	c3                   	retq   

000000000000307a <ecall_consumer>:
    307a:	55                   	push   %rbp
    307b:	48 89 e5             	mov    %rsp,%rbp
    307e:	48 83 ec 20          	sub    $0x20,%rsp
    3082:	48 89 7d e8          	mov    %rdi,-0x18(%rbp)
    3086:	48 8b 45 e8          	mov    -0x18(%rbp),%rax
    308a:	b9 00 00 00 00       	mov    $0x0,%ecx
    308f:	48 8d 15 6a 4b 00 00 	lea    0x4b6a(%rip),%rdx        # 7c00 <ocall_table_Enclave>
    3096:	be 1f 00 00 00       	mov    $0x1f,%esi
    309b:	48 89 c7             	mov    %rax,%rdi
    309e:	e8 2d f0 ff ff       	callq  20d0 <sgx_ecall@plt>
    30a3:	89 45 fc             	mov    %eax,-0x4(%rbp)
    30a6:	8b 45 fc             	mov    -0x4(%rbp),%eax
    30a9:	c9                   	leaveq 
    30aa:	c3                   	retq   

00000000000030ab <print_error_message(_status_t)>:
    30ab:	55                   	push   %rbp
    30ac:	48 89 e5             	mov    %rsp,%rbp
    30af:	48 83 ec 20          	sub    $0x20,%rsp
    30b3:	89 7d ec             	mov    %edi,-0x14(%rbp)
    30b6:	48 c7 45 f0 00 00 00 	movq   $0x0,-0x10(%rbp)
    30bd:	00 
    30be:	48 c7 45 f8 0f 00 00 	movq   $0xf,-0x8(%rbp)
    30c5:	00 
    30c6:	48 c7 45 f0 00 00 00 	movq   $0x0,-0x10(%rbp)
    30cd:	00 
    30ce:	48 8b 45 f0          	mov    -0x10(%rbp),%rax
    30d2:	48 3b 45 f8          	cmp    -0x8(%rbp),%rax
    30d6:	0f 83 bd 00 00 00    	jae    3199 <print_error_message(_status_t)+0xee>
    30dc:	48 8b 55 f0          	mov    -0x10(%rbp),%rdx
    30e0:	48 89 d0             	mov    %rdx,%rax
    30e3:	48 01 c0             	add    %rax,%rax
    30e6:	48 01 d0             	add    %rdx,%rax
    30e9:	48 c1 e0 03          	shl    $0x3,%rax
    30ed:	48 89 c2             	mov    %rax,%rdx
    30f0:	48 8d 05 29 4f 00 00 	lea    0x4f29(%rip),%rax        # 8020 <sgx_errlist>
    30f7:	8b 04 02             	mov    (%rdx,%rax,1),%eax
    30fa:	39 45 ec             	cmp    %eax,-0x14(%rbp)
    30fd:	0f 85 8c 00 00 00    	jne    318f <print_error_message(_status_t)+0xe4>
    3103:	48 8b 55 f0          	mov    -0x10(%rbp),%rdx
    3107:	48 89 d0             	mov    %rdx,%rax
    310a:	48 01 c0             	add    %rax,%rax
    310d:	48 01 d0             	add    %rdx,%rax
    3110:	48 c1 e0 03          	shl    $0x3,%rax
    3114:	48 89 c2             	mov    %rax,%rdx
    3117:	48 8d 05 12 4f 00 00 	lea    0x4f12(%rip),%rax        # 8030 <sgx_errlist+0x10>
    311e:	48 8b 04 02          	mov    (%rdx,%rax,1),%rax
    3122:	48 85 c0             	test   %rax,%rax
    3125:	74 33                	je     315a <print_error_message(_status_t)+0xaf>
    3127:	48 8b 55 f0          	mov    -0x10(%rbp),%rdx
    312b:	48 89 d0             	mov    %rdx,%rax
    312e:	48 01 c0             	add    %rax,%rax
    3131:	48 01 d0             	add    %rdx,%rax
    3134:	48 c1 e0 03          	shl    $0x3,%rax
    3138:	48 89 c2             	mov    %rax,%rdx
    313b:	48 8d 05 ee 4e 00 00 	lea    0x4eee(%rip),%rax        # 8030 <sgx_errlist+0x10>
    3142:	48 8b 04 02          	mov    (%rdx,%rax,1),%rax
    3146:	48 89 c6             	mov    %rax,%rsi
    3149:	48 8d 3d bf 20 00 00 	lea    0x20bf(%rip),%rdi        # 520f <_IO_stdin_used+0x20f>
    3150:	b8 00 00 00 00       	mov    $0x0,%eax
    3155:	e8 d6 ee ff ff       	callq  2030 <printf@plt>
    315a:	48 8b 55 f0          	mov    -0x10(%rbp),%rdx
    315e:	48 89 d0             	mov    %rdx,%rax
    3161:	48 01 c0             	add    %rax,%rax
    3164:	48 01 d0             	add    %rdx,%rax
    3167:	48 c1 e0 03          	shl    $0x3,%rax
    316b:	48 89 c2             	mov    %rax,%rdx
    316e:	48 8d 05 b3 4e 00 00 	lea    0x4eb3(%rip),%rax        # 8028 <sgx_errlist+0x8>
    3175:	48 8b 04 02          	mov    (%rdx,%rax,1),%rax
    3179:	48 89 c6             	mov    %rax,%rsi
    317c:	48 8d 3d 96 20 00 00 	lea    0x2096(%rip),%rdi        # 5219 <_IO_stdin_used+0x219>
    3183:	b8 00 00 00 00       	mov    $0x0,%eax
    3188:	e8 a3 ee ff ff       	callq  2030 <printf@plt>
    318d:	eb 0a                	jmp    3199 <print_error_message(_status_t)+0xee>
    318f:	48 83 45 f0 01       	addq   $0x1,-0x10(%rbp)
    3194:	e9 35 ff ff ff       	jmpq   30ce <print_error_message(_status_t)+0x23>
    3199:	48 8b 45 f0          	mov    -0x10(%rbp),%rax
    319d:	48 3b 45 f8          	cmp    -0x8(%rbp),%rax
    31a1:	75 16                	jne    31b9 <print_error_message(_status_t)+0x10e>
    31a3:	8b 45 ec             	mov    -0x14(%rbp),%eax
    31a6:	89 c6                	mov    %eax,%esi
    31a8:	48 8d 3d 79 20 00 00 	lea    0x2079(%rip),%rdi        # 5228 <_IO_stdin_used+0x228>
    31af:	b8 00 00 00 00       	mov    $0x0,%eax
    31b4:	e8 77 ee ff ff       	callq  2030 <printf@plt>
    31b9:	90                   	nop
    31ba:	c9                   	leaveq 
    31bb:	c3                   	retq   

00000000000031bc <initialize_enclave()>:
    31bc:	55                   	push   %rbp
    31bd:	48 89 e5             	mov    %rsp,%rbp
    31c0:	48 83 ec 10          	sub    $0x10,%rsp
    31c4:	c7 45 fc 01 00 00 00 	movl   $0x1,-0x4(%rbp)
    31cb:	41 b9 00 00 00 00    	mov    $0x0,%r9d
    31d1:	48 8d 05 c0 4f 00 00 	lea    0x4fc0(%rip),%rax        # 8198 <global_eid>
    31d8:	49 89 c0             	mov    %rax,%r8
    31db:	b9 00 00 00 00       	mov    $0x0,%ecx
    31e0:	ba 00 00 00 00       	mov    $0x0,%edx
    31e5:	be 01 00 00 00       	mov    $0x1,%esi
    31ea:	48 8d 3d 96 20 00 00 	lea    0x2096(%rip),%rdi        # 5287 <_IO_stdin_used+0x287>
    31f1:	e8 fa ee ff ff       	callq  20f0 <sgx_create_enclave@plt>
    31f6:	89 45 fc             	mov    %eax,-0x4(%rbp)
    31f9:	b8 00 00 00 00       	mov    $0x0,%eax
    31fe:	c9                   	leaveq 
    31ff:	c3                   	retq   

0000000000003200 <ocall_print_string>:
    3200:	55                   	push   %rbp
    3201:	48 89 e5             	mov    %rsp,%rbp
    3204:	48 83 ec 10          	sub    $0x10,%rsp
    3208:	48 89 7d f8          	mov    %rdi,-0x8(%rbp)
    320c:	48 8b 45 f8          	mov    -0x8(%rbp),%rax
    3210:	48 89 c6             	mov    %rax,%rsi
    3213:	48 8d 3d 7f 20 00 00 	lea    0x207f(%rip),%rdi        # 5299 <_IO_stdin_used+0x299>
    321a:	b8 00 00 00 00       	mov    $0x0,%eax
    321f:	e8 0c ee ff ff       	callq  2030 <printf@plt>
    3224:	90                   	nop
    3225:	c9                   	leaveq 
    3226:	c3                   	retq   

0000000000003227 <main>:
    3227:	55                   	push   %rbp
    3228:	48 89 e5             	mov    %rsp,%rbp
    322b:	48 83 ec 30          	sub    $0x30,%rsp
    322f:	89 7d dc             	mov    %edi,-0x24(%rbp)
    3232:	48 89 75 d0          	mov    %rsi,-0x30(%rbp)
    3236:	64 48 8b 04 25 28 00 	mov    %fs:0x28,%rax
    323d:	00 00 
    323f:	48 89 45 f8          	mov    %rax,-0x8(%rbp)
    3243:	31 c0                	xor    %eax,%eax
    3245:	e8 72 ff ff ff       	callq  31bc <initialize_enclave()>
    324a:	e8 01 ef ff ff       	callq  2150 <getchar@plt>
    324f:	89 45 ec             	mov    %eax,-0x14(%rbp)
    3252:	48 8d 45 ec          	lea    -0x14(%rbp),%rax
    3256:	48 89 45 f0          	mov    %rax,-0x10(%rbp)
    325a:	48 8d 05 37 4f 00 00 	lea    0x4f37(%rip),%rax        # 8198 <global_eid>
    3261:	48 8b 00             	mov    (%rax),%rax
    3264:	48 8b 55 f0          	mov    -0x10(%rbp),%rdx
    3268:	48 89 d6             	mov    %rdx,%rsi
    326b:	48 89 c7             	mov    %rax,%rdi
    326e:	e8 94 f6 ff ff       	callq  2907 <ecall_pointer_out>
    3273:	48 8d 05 1e 4f 00 00 	lea    0x4f1e(%rip),%rax        # 8198 <global_eid>
    327a:	48 8b 00             	mov    (%rax),%rax
    327d:	48 89 c7             	mov    %rax,%rdi
    3280:	e8 1b ee ff ff       	callq  20a0 <sgx_destroy_enclave@plt>
    3285:	48 8d 3d 14 20 00 00 	lea    0x2014(%rip),%rdi        # 52a0 <_IO_stdin_used+0x2a0>
    328c:	e8 df ee ff ff       	callq  2170 <puts@plt>
    3291:	b8 00 00 00 00       	mov    $0x0,%eax
    3296:	48 8b 4d f8          	mov    -0x8(%rbp),%rcx
    329a:	64 48 33 0c 25 28 00 	xor    %fs:0x28,%rcx
    32a1:	00 00 
    32a3:	74 05                	je     32aa <main+0x83>
    32a5:	e8 96 ee ff ff       	callq  2140 <__stack_chk_fail@plt>
    32aa:	c9                   	leaveq 
    32ab:	c3                   	retq   

00000000000032ac <edger8r_type_attributes>:
    32ac:	55                   	push   %rbp
    32ad:	48 89 e5             	mov    %rsp,%rbp
    32b0:	48 83 ec 40          	sub    $0x40,%rsp
    32b4:	64 48 8b 04 25 28 00 	mov    %fs:0x28,%rax
    32bb:	00 00 
    32bd:	48 89 45 f8          	mov    %rax,-0x8(%rbp)
    32c1:	31 c0                	xor    %eax,%eax
    32c3:	c7 45 d4 01 00 00 00 	movl   $0x1,-0x2c(%rbp)
    32ca:	48 8d 05 c7 4e 00 00 	lea    0x4ec7(%rip),%rax        # 8198 <global_eid>
    32d1:	48 8b 00             	mov    (%rax),%rax
    32d4:	be 12 00 00 00       	mov    $0x12,%esi
    32d9:	48 89 c7             	mov    %rax,%rdi
    32dc:	e8 0d f2 ff ff       	callq  24ee <ecall_type_char>
    32e1:	89 45 d4             	mov    %eax,-0x2c(%rbp)
    32e4:	83 7d d4 00          	cmpl   $0x0,-0x2c(%rbp)
    32e8:	74 05                	je     32ef <edger8r_type_attributes+0x43>
    32ea:	e8 d1 ed ff ff       	callq  20c0 <abort@plt>
    32ef:	48 8d 05 a2 4e 00 00 	lea    0x4ea2(%rip),%rax        # 8198 <global_eid>
    32f6:	48 8b 00             	mov    (%rax),%rax
    32f9:	be d2 04 00 00       	mov    $0x4d2,%esi
    32fe:	48 89 c7             	mov    %rax,%rdi
    3301:	e8 4a f2 ff ff       	callq  2550 <ecall_type_int>
    3306:	89 45 d4             	mov    %eax,-0x2c(%rbp)
    3309:	83 7d d4 00          	cmpl   $0x0,-0x2c(%rbp)
    330d:	74 05                	je     3314 <edger8r_type_attributes+0x68>
    330f:	e8 ac ed ff ff       	callq  20c0 <abort@plt>
    3314:	48 8d 05 7d 4e 00 00 	lea    0x4e7d(%rip),%rax        # 8198 <global_eid>
    331b:	48 8b 00             	mov    (%rax),%rax
    331e:	f3 0f 10 05 0a 20 00 	movss  0x200a(%rip),%xmm0        # 5330 <edger8r_type_attributes::__PRETTY_FUNCTION__+0x20>
    3325:	00 
    3326:	48 89 c7             	mov    %rax,%rdi
    3329:	e8 81 f2 ff ff       	callq  25af <ecall_type_float>
    332e:	89 45 d4             	mov    %eax,-0x2c(%rbp)
    3331:	83 7d d4 00          	cmpl   $0x0,-0x2c(%rbp)
    3335:	74 05                	je     333c <edger8r_type_attributes+0x90>
    3337:	e8 84 ed ff ff       	callq  20c0 <abort@plt>
    333c:	48 8d 05 55 4e 00 00 	lea    0x4e55(%rip),%rax        # 8198 <global_eid>
    3343:	48 8b 00             	mov    (%rax),%rax
    3346:	48 8b 15 eb 1f 00 00 	mov    0x1feb(%rip),%rdx        # 5338 <edger8r_type_attributes::__PRETTY_FUNCTION__+0x28>
    334d:	48 89 55 c8          	mov    %rdx,-0x38(%rbp)
    3351:	f2 0f 10 45 c8       	movsd  -0x38(%rbp),%xmm0
    3356:	48 89 c7             	mov    %rax,%rdi
    3359:	e8 b6 f2 ff ff       	callq  2614 <ecall_type_double>
    335e:	89 45 d4             	mov    %eax,-0x2c(%rbp)
    3361:	83 7d d4 00          	cmpl   $0x0,-0x2c(%rbp)
    3365:	74 05                	je     336c <edger8r_type_attributes+0xc0>
    3367:	e8 54 ed ff ff       	callq  20c0 <abort@plt>
    336c:	48 8d 05 25 4e 00 00 	lea    0x4e25(%rip),%rax        # 8198 <global_eid>
    3373:	48 8b 00             	mov    (%rax),%rax
    3376:	be 4e 61 bc 00       	mov    $0xbc614e,%esi
    337b:	48 89 c7             	mov    %rax,%rdi
    337e:	e8 f6 f2 ff ff       	callq  2679 <ecall_type_size_t>
    3383:	89 45 d4             	mov    %eax,-0x2c(%rbp)
    3386:	83 7d d4 00          	cmpl   $0x0,-0x2c(%rbp)
    338a:	74 05                	je     3391 <edger8r_type_attributes+0xe5>
    338c:	e8 2f ed ff ff       	callq  20c0 <abort@plt>
    3391:	48 8d 05 00 4e 00 00 	lea    0x4e00(%rip),%rax        # 8198 <global_eid>
    3398:	48 8b 00             	mov    (%rax),%rax
    339b:	be 34 12 00 00       	mov    $0x1234,%esi
    33a0:	48 89 c7             	mov    %rax,%rdi
    33a3:	e8 33 f3 ff ff       	callq  26db <ecall_type_wchar_t>
    33a8:	89 45 d4             	mov    %eax,-0x2c(%rbp)
    33ab:	83 7d d4 00          	cmpl   $0x0,-0x2c(%rbp)
    33af:	74 05                	je     33b6 <edger8r_type_attributes+0x10a>
    33b1:	e8 0a ed ff ff       	callq  20c0 <abort@plt>
    33b6:	c7 45 e0 d2 04 00 00 	movl   $0x4d2,-0x20(%rbp)
    33bd:	48 c7 45 e8 2e 16 00 	movq   $0x162e,-0x18(%rbp)
    33c4:	00 
    33c5:	48 8d 05 cc 4d 00 00 	lea    0x4dcc(%rip),%rax        # 8198 <global_eid>
    33cc:	48 8b 00             	mov    (%rax),%rax
    33cf:	8b 4d e0             	mov    -0x20(%rbp),%ecx
    33d2:	48 8b 55 e8          	mov    -0x18(%rbp),%rdx
    33d6:	89 ce                	mov    %ecx,%esi
    33d8:	48 89 c7             	mov    %rax,%rdi
    33db:	e8 5a f3 ff ff       	callq  273a <ecall_type_struct>
    33e0:	89 45 d4             	mov    %eax,-0x2c(%rbp)
    33e3:	83 7d d4 00          	cmpl   $0x0,-0x2c(%rbp)
    33e7:	74 05                	je     33ee <edger8r_type_attributes+0x142>
    33e9:	e8 d2 ec ff ff       	callq  20c0 <abort@plt>
    33ee:	48 c7 45 d8 00 00 00 	movq   $0x0,-0x28(%rbp)
    33f5:	00 
    33f6:	48 8d 05 9b 4d 00 00 	lea    0x4d9b(%rip),%rax        # 8198 <global_eid>
    33fd:	48 8b 00             	mov    (%rax),%rax
    3400:	48 8d 55 d8          	lea    -0x28(%rbp),%rdx
    3404:	be 00 00 00 00       	mov    $0x0,%esi
    3409:	48 89 c7             	mov    %rax,%rdi
    340c:	e8 9f f3 ff ff       	callq  27b0 <ecall_type_enum_union>
    3411:	89 45 d4             	mov    %eax,-0x2c(%rbp)
    3414:	83 7d d4 00          	cmpl   $0x0,-0x2c(%rbp)
    3418:	74 05                	je     341f <edger8r_type_attributes+0x173>
    341a:	e8 a1 ec ff ff       	callq  20c0 <abort@plt>
    341f:	8b 45 d8             	mov    -0x28(%rbp),%eax
    3422:	83 f8 02             	cmp    $0x2,%eax
    3425:	74 1f                	je     3446 <edger8r_type_attributes+0x19a>
    3427:	48 8d 0d e2 1e 00 00 	lea    0x1ee2(%rip),%rcx        # 5310 <edger8r_type_attributes::__PRETTY_FUNCTION__>
    342e:	ba 4c 00 00 00       	mov    $0x4c,%edx
    3433:	48 8d 35 96 1e 00 00 	lea    0x1e96(%rip),%rsi        # 52d0 <_IO_stdin_used+0x2d0>
    343a:	48 8d 3d ab 1e 00 00 	lea    0x1eab(%rip),%rdi        # 52ec <_IO_stdin_used+0x2ec>
    3441:	e8 9a ec ff ff       	callq  20e0 <__assert_fail@plt>
    3446:	90                   	nop
    3447:	48 8b 45 f8          	mov    -0x8(%rbp),%rax
    344b:	64 48 33 04 25 28 00 	xor    %fs:0x28,%rax
    3452:	00 00 
    3454:	74 05                	je     345b <edger8r_type_attributes+0x1af>
    3456:	e8 e5 ec ff ff       	callq  2140 <__stack_chk_fail@plt>
    345b:	c9                   	leaveq 
    345c:	c3                   	retq   

000000000000345d <edger8r_pointer_attributes>:
    345d:	55                   	push   %rbp
    345e:	48 89 e5             	mov    %rsp,%rbp
    3461:	48 81 ec 10 01 00 00 	sub    $0x110,%rsp
    3468:	64 48 8b 04 25 28 00 	mov    %fs:0x28,%rax
    346f:	00 00 
    3471:	48 89 45 f8          	mov    %rax,-0x8(%rbp)
    3475:	31 c0                	xor    %eax,%eax
    3477:	c7 85 fc fe ff ff 00 	movl   $0x0,-0x104(%rbp)
    347e:	00 00 00 
    3481:	c7 85 04 ff ff ff 01 	movl   $0x1,-0xfc(%rbp)
    3488:	00 00 00 
    348b:	48 8d 95 70 ff ff ff 	lea    -0x90(%rbp),%rdx
    3492:	b8 00 00 00 00       	mov    $0x0,%eax
    3497:	b9 10 00 00 00       	mov    $0x10,%ecx
    349c:	48 89 d7             	mov    %rdx,%rdi
    349f:	f3 48 ab             	rep stos %rax,%es:(%rdi)
    34a2:	48 c7 85 08 ff ff ff 	movq   $0x0,-0xf8(%rbp)
    34a9:	00 00 00 00 
    34ad:	48 8d 85 70 ff ff ff 	lea    -0x90(%rbp),%rax
    34b4:	ba 80 00 00 00       	mov    $0x80,%edx
    34b9:	be 0e 00 00 00       	mov    $0xe,%esi
    34be:	48 89 c7             	mov    %rax,%rdi
    34c1:	e8 ea eb ff ff       	callq  20b0 <memset@plt>
    34c6:	48 8d 05 cb 4c 00 00 	lea    0x4ccb(%rip),%rax        # 8198 <global_eid>
    34cd:	48 8b 00             	mov    (%rax),%rax
    34d0:	48 8d 95 70 ff ff ff 	lea    -0x90(%rbp),%rdx
    34d7:	48 8d b5 08 ff ff ff 	lea    -0xf8(%rbp),%rsi
    34de:	b9 80 00 00 00       	mov    $0x80,%ecx
    34e3:	48 89 c7             	mov    %rax,%rdi
    34e6:	e8 30 f3 ff ff       	callq  281b <ecall_pointer_user_check>
    34eb:	89 85 04 ff ff ff    	mov    %eax,-0xfc(%rbp)
    34f1:	83 bd 04 ff ff ff 00 	cmpl   $0x0,-0xfc(%rbp)
    34f8:	74 05                	je     34ff <edger8r_pointer_attributes+0xa2>
    34fa:	e8 c1 eb ff ff       	callq  20c0 <abort@plt>
    34ff:	48 8d 85 70 ff ff ff 	lea    -0x90(%rbp),%rax
    3506:	48 8d 35 33 1e 00 00 	lea    0x1e33(%rip),%rsi        # 5340 <edger8r_type_attributes::__PRETTY_FUNCTION__+0x30>
    350d:	48 89 c7             	mov    %rax,%rdi
    3510:	e8 4b ec ff ff       	callq  2160 <strcmp@plt>
    3515:	85 c0                	test   %eax,%eax
    3517:	74 1f                	je     3538 <edger8r_pointer_attributes+0xdb>
    3519:	48 8d 0d e0 1f 00 00 	lea    0x1fe0(%rip),%rcx        # 5500 <edger8r_pointer_attributes::__PRETTY_FUNCTION__>
    3520:	ba 32 00 00 00       	mov    $0x32,%edx
    3525:	48 8d 35 24 1e 00 00 	lea    0x1e24(%rip),%rsi        # 5350 <edger8r_type_attributes::__PRETTY_FUNCTION__+0x40>
    352c:	48 8d 3d 3c 1e 00 00 	lea    0x1e3c(%rip),%rdi        # 536f <edger8r_type_attributes::__PRETTY_FUNCTION__+0x5f>
    3533:	e8 a8 eb ff ff       	callq  20e0 <__assert_fail@plt>
    3538:	c7 85 fc fe ff ff 00 	movl   $0x0,-0x104(%rbp)
    353f:	00 00 00 
    3542:	48 8d 05 4f 4c 00 00 	lea    0x4c4f(%rip),%rax        # 8198 <global_eid>
    3549:	48 8b 00             	mov    (%rax),%rax
    354c:	48 8d 95 fc fe ff ff 	lea    -0x104(%rbp),%rdx
    3553:	48 89 d6             	mov    %rdx,%rsi
    3556:	48 89 c7             	mov    %rax,%rdi
    3559:	e8 47 f3 ff ff       	callq  28a5 <ecall_pointer_in>
    355e:	89 85 04 ff ff ff    	mov    %eax,-0xfc(%rbp)
    3564:	83 bd 04 ff ff ff 00 	cmpl   $0x0,-0xfc(%rbp)
    356b:	74 05                	je     3572 <edger8r_pointer_attributes+0x115>
    356d:	e8 4e eb ff ff       	callq  20c0 <abort@plt>
    3572:	8b 85 fc fe ff ff    	mov    -0x104(%rbp),%eax
    3578:	85 c0                	test   %eax,%eax
    357a:	74 1f                	je     359b <edger8r_pointer_attributes+0x13e>
    357c:	48 8d 0d 7d 1f 00 00 	lea    0x1f7d(%rip),%rcx        # 5500 <edger8r_pointer_attributes::__PRETTY_FUNCTION__>
    3583:	ba 39 00 00 00       	mov    $0x39,%edx
    3588:	48 8d 35 c1 1d 00 00 	lea    0x1dc1(%rip),%rsi        # 5350 <edger8r_type_attributes::__PRETTY_FUNCTION__+0x40>
    358f:	48 8d 3d f7 1d 00 00 	lea    0x1df7(%rip),%rdi        # 538d <edger8r_type_attributes::__PRETTY_FUNCTION__+0x7d>
    3596:	e8 45 eb ff ff       	callq  20e0 <__assert_fail@plt>
    359b:	c7 85 fc fe ff ff 00 	movl   $0x0,-0x104(%rbp)
    35a2:	00 00 00 
    35a5:	48 8d 05 ec 4b 00 00 	lea    0x4bec(%rip),%rax        # 8198 <global_eid>
    35ac:	48 8b 00             	mov    (%rax),%rax
    35af:	48 8d 95 fc fe ff ff 	lea    -0x104(%rbp),%rdx
    35b6:	48 89 d6             	mov    %rdx,%rsi
    35b9:	48 89 c7             	mov    %rax,%rdi
    35bc:	e8 46 f3 ff ff       	callq  2907 <ecall_pointer_out>
    35c1:	89 85 04 ff ff ff    	mov    %eax,-0xfc(%rbp)
    35c7:	83 bd 04 ff ff ff 00 	cmpl   $0x0,-0xfc(%rbp)
    35ce:	74 05                	je     35d5 <edger8r_pointer_attributes+0x178>
    35d0:	e8 eb ea ff ff       	callq  20c0 <abort@plt>
    35d5:	8b 85 fc fe ff ff    	mov    -0x104(%rbp),%eax
    35db:	3d d2 04 00 00       	cmp    $0x4d2,%eax
    35e0:	74 1f                	je     3601 <edger8r_pointer_attributes+0x1a4>
    35e2:	48 8d 0d 17 1f 00 00 	lea    0x1f17(%rip),%rcx        # 5500 <edger8r_pointer_attributes::__PRETTY_FUNCTION__>
    35e9:	ba 3f 00 00 00       	mov    $0x3f,%edx
    35ee:	48 8d 35 5b 1d 00 00 	lea    0x1d5b(%rip),%rsi        # 5350 <edger8r_type_attributes::__PRETTY_FUNCTION__+0x40>
    35f5:	48 8d 3d 9a 1d 00 00 	lea    0x1d9a(%rip),%rdi        # 5396 <edger8r_type_attributes::__PRETTY_FUNCTION__+0x86>
    35fc:	e8 df ea ff ff       	callq  20e0 <__assert_fail@plt>
    3601:	c7 85 fc fe ff ff 00 	movl   $0x0,-0x104(%rbp)
    3608:	00 00 00 
    360b:	48 8d 05 86 4b 00 00 	lea    0x4b86(%rip),%rax        # 8198 <global_eid>
    3612:	48 8b 00             	mov    (%rax),%rax
    3615:	48 8d 95 fc fe ff ff 	lea    -0x104(%rbp),%rdx
    361c:	48 89 d6             	mov    %rdx,%rsi
    361f:	48 89 c7             	mov    %rax,%rdi
    3622:	e8 42 f3 ff ff       	callq  2969 <ecall_pointer_in_out>
    3627:	89 85 04 ff ff ff    	mov    %eax,-0xfc(%rbp)
    362d:	83 bd 04 ff ff ff 00 	cmpl   $0x0,-0xfc(%rbp)
    3634:	74 05                	je     363b <edger8r_pointer_attributes+0x1de>
    3636:	e8 85 ea ff ff       	callq  20c0 <abort@plt>
    363b:	8b 85 fc fe ff ff    	mov    -0x104(%rbp),%eax
    3641:	3d d2 04 00 00       	cmp    $0x4d2,%eax
    3646:	74 1f                	je     3667 <edger8r_pointer_attributes+0x20a>
    3648:	48 8d 0d b1 1e 00 00 	lea    0x1eb1(%rip),%rcx        # 5500 <edger8r_pointer_attributes::__PRETTY_FUNCTION__>
    364f:	ba 45 00 00 00       	mov    $0x45,%edx
    3654:	48 8d 35 f5 1c 00 00 	lea    0x1cf5(%rip),%rsi        # 5350 <edger8r_type_attributes::__PRETTY_FUNCTION__+0x40>
    365b:	48 8d 3d 34 1d 00 00 	lea    0x1d34(%rip),%rdi        # 5396 <edger8r_type_attributes::__PRETTY_FUNCTION__+0x86>
    3662:	e8 79 ea ff ff       	callq  20e0 <__assert_fail@plt>
    3667:	48 8d 05 2a 4b 00 00 	lea    0x4b2a(%rip),%rax        # 8198 <global_eid>
    366e:	48 8b 00             	mov    (%rax),%rax
    3671:	48 89 c7             	mov    %rax,%rdi
    3674:	e8 a4 f5 ff ff       	callq  2c1d <ocall_pointer_attr>
    3679:	89 85 04 ff ff ff    	mov    %eax,-0xfc(%rbp)
    367f:	83 bd 04 ff ff ff 00 	cmpl   $0x0,-0xfc(%rbp)
    3686:	74 05                	je     368d <edger8r_pointer_attributes+0x230>
    3688:	e8 33 ea ff ff       	callq  20c0 <abort@plt>
    368d:	48 b8 31 32 33 34 35 	movabs $0x3837363534333231,%rax
    3694:	36 37 38 
    3697:	48 89 85 44 ff ff ff 	mov    %rax,-0xbc(%rbp)
    369e:	66 c7 85 4c ff ff ff 	movw   $0x3039,-0xb4(%rbp)
    36a5:	39 30 
    36a7:	c6 85 4e ff ff ff 00 	movb   $0x0,-0xb2(%rbp)
    36ae:	48 8d 05 e3 4a 00 00 	lea    0x4ae3(%rip),%rax        # 8198 <global_eid>
    36b5:	48 8b 00             	mov    (%rax),%rax
    36b8:	48 8d 95 44 ff ff ff 	lea    -0xbc(%rbp),%rdx
    36bf:	48 89 d6             	mov    %rdx,%rsi
    36c2:	48 89 c7             	mov    %rax,%rdi
    36c5:	e8 01 f3 ff ff       	callq  29cb <ecall_pointer_string>
    36ca:	89 85 04 ff ff ff    	mov    %eax,-0xfc(%rbp)
    36d0:	83 bd 04 ff ff ff 00 	cmpl   $0x0,-0xfc(%rbp)
    36d7:	74 05                	je     36de <edger8r_pointer_attributes+0x281>
    36d9:	e8 e2 e9 ff ff       	callq  20c0 <abort@plt>
    36de:	48 8d 85 44 ff ff ff 	lea    -0xbc(%rbp),%rax
    36e5:	48 89 c7             	mov    %rax,%rdi
    36e8:	e8 73 e9 ff ff       	callq  2060 <strlen@plt>
    36ed:	48 83 f8 0a          	cmp    $0xa,%rax
    36f1:	75 2c                	jne    371f <edger8r_pointer_attributes+0x2c2>
    36f3:	48 8d 85 44 ff ff ff 	lea    -0xbc(%rbp),%rax
    36fa:	48 89 c7             	mov    %rax,%rdi
    36fd:	e8 5e e9 ff ff       	callq  2060 <strlen@plt>
    3702:	48 89 c2             	mov    %rax,%rdx
    3705:	48 8d 85 44 ff ff ff 	lea    -0xbc(%rbp),%rax
    370c:	48 8d 35 8f 1c 00 00 	lea    0x1c8f(%rip),%rsi        # 53a2 <edger8r_type_attributes::__PRETTY_FUNCTION__+0x92>
    3713:	48 89 c7             	mov    %rax,%rdi
    3716:	e8 55 e9 ff ff       	callq  2070 <memcmp@plt>
    371b:	85 c0                	test   %eax,%eax
    371d:	74 1f                	je     373e <edger8r_pointer_attributes+0x2e1>
    371f:	48 8d 0d da 1d 00 00 	lea    0x1dda(%rip),%rcx        # 5500 <edger8r_pointer_attributes::__PRETTY_FUNCTION__>
    3726:	ba 4f 00 00 00       	mov    $0x4f,%edx
    372b:	48 8d 35 1e 1c 00 00 	lea    0x1c1e(%rip),%rsi        # 5350 <edger8r_type_attributes::__PRETTY_FUNCTION__+0x40>
    3732:	48 8d 3d 77 1c 00 00 	lea    0x1c77(%rip),%rdi        # 53b0 <edger8r_type_attributes::__PRETTY_FUNCTION__+0xa0>
    3739:	e8 a2 e9 ff ff       	callq  20e0 <__assert_fail@plt>
    373e:	48 b8 31 32 33 34 35 	movabs $0x3837363534333231,%rax
    3745:	36 37 38 
    3748:	48 89 85 4f ff ff ff 	mov    %rax,-0xb1(%rbp)
    374f:	66 c7 85 57 ff ff ff 	movw   $0x3039,-0xa9(%rbp)
    3756:	39 30 
    3758:	c6 85 59 ff ff ff 00 	movb   $0x0,-0xa7(%rbp)
    375f:	48 8d 05 32 4a 00 00 	lea    0x4a32(%rip),%rax        # 8198 <global_eid>
    3766:	48 8b 00             	mov    (%rax),%rax
    3769:	48 8d 95 4f ff ff ff 	lea    -0xb1(%rbp),%rdx
    3770:	48 89 d6             	mov    %rdx,%rsi
    3773:	48 89 c7             	mov    %rax,%rdi
    3776:	e8 d4 f2 ff ff       	callq  2a4f <ecall_pointer_string_const>
    377b:	89 85 04 ff ff ff    	mov    %eax,-0xfc(%rbp)
    3781:	83 bd 04 ff ff ff 00 	cmpl   $0x0,-0xfc(%rbp)
    3788:	74 05                	je     378f <edger8r_pointer_attributes+0x332>
    378a:	e8 31 e9 ff ff       	callq  20c0 <abort@plt>
    378f:	48 8d 85 4f ff ff ff 	lea    -0xb1(%rbp),%rax
    3796:	48 89 c7             	mov    %rax,%rdi
    3799:	e8 c2 e8 ff ff       	callq  2060 <strlen@plt>
    379e:	48 83 f8 0a          	cmp    $0xa,%rax
    37a2:	75 2c                	jne    37d0 <edger8r_pointer_attributes+0x373>
    37a4:	48 8d 85 4f ff ff ff 	lea    -0xb1(%rbp),%rax
    37ab:	48 89 c7             	mov    %rax,%rdi
    37ae:	e8 ad e8 ff ff       	callq  2060 <strlen@plt>
    37b3:	48 89 c2             	mov    %rax,%rdx
    37b6:	48 8d 85 4f ff ff ff 	lea    -0xb1(%rbp),%rax
    37bd:	48 8d 35 30 1c 00 00 	lea    0x1c30(%rip),%rsi        # 53f4 <edger8r_type_attributes::__PRETTY_FUNCTION__+0xe4>
    37c4:	48 89 c7             	mov    %rax,%rdi
    37c7:	e8 a4 e8 ff ff       	callq  2070 <memcmp@plt>
    37cc:	85 c0                	test   %eax,%eax
    37ce:	74 1f                	je     37ef <edger8r_pointer_attributes+0x392>
    37d0:	48 8d 0d 29 1d 00 00 	lea    0x1d29(%rip),%rcx        # 5500 <edger8r_pointer_attributes::__PRETTY_FUNCTION__>
    37d7:	ba 55 00 00 00       	mov    $0x55,%edx
    37dc:	48 8d 35 6d 1b 00 00 	lea    0x1b6d(%rip),%rsi        # 5350 <edger8r_type_attributes::__PRETTY_FUNCTION__+0x40>
    37e3:	48 8d 3d 16 1c 00 00 	lea    0x1c16(%rip),%rdi        # 5400 <edger8r_type_attributes::__PRETTY_FUNCTION__+0xf0>
    37ea:	e8 f1 e8 ff ff       	callq  20e0 <__assert_fail@plt>
    37ef:	48 b8 31 32 33 34 35 	movabs $0x3837363534333231,%rax
    37f6:	36 37 38 
    37f9:	48 89 85 5a ff ff ff 	mov    %rax,-0xa6(%rbp)
    3800:	66 c7 85 62 ff ff ff 	movw   $0x3039,-0x9e(%rbp)
    3807:	39 30 
    3809:	c6 85 64 ff ff ff 00 	movb   $0x0,-0x9c(%rbp)
    3810:	48 8d 85 5a ff ff ff 	lea    -0xa6(%rbp),%rax
    3817:	48 89 c7             	mov    %rax,%rdi
    381a:	e8 41 e8 ff ff       	callq  2060 <strlen@plt>
    381f:	48 89 c2             	mov    %rax,%rdx
    3822:	48 8d 05 6f 49 00 00 	lea    0x496f(%rip),%rax        # 8198 <global_eid>
    3829:	48 8b 00             	mov    (%rax),%rax
    382c:	48 8d 8d 5a ff ff ff 	lea    -0xa6(%rbp),%rcx
    3833:	48 89 ce             	mov    %rcx,%rsi
    3836:	48 89 c7             	mov    %rax,%rdi
    3839:	e8 95 f2 ff ff       	callq  2ad3 <ecall_pointer_size>
    383e:	89 85 04 ff ff ff    	mov    %eax,-0xfc(%rbp)
    3844:	83 bd 04 ff ff ff 00 	cmpl   $0x0,-0xfc(%rbp)
    384b:	74 05                	je     3852 <edger8r_pointer_attributes+0x3f5>
    384d:	e8 6e e8 ff ff       	callq  20c0 <abort@plt>
    3852:	48 8d 85 5a ff ff ff 	lea    -0xa6(%rbp),%rax
    3859:	48 89 c7             	mov    %rax,%rdi
    385c:	e8 ff e7 ff ff       	callq  2060 <strlen@plt>
    3861:	48 83 f8 0a          	cmp    $0xa,%rax
    3865:	75 2c                	jne    3893 <edger8r_pointer_attributes+0x436>
    3867:	48 8d 85 5a ff ff ff 	lea    -0xa6(%rbp),%rax
    386e:	48 89 c7             	mov    %rax,%rdi
    3871:	e8 ea e7 ff ff       	callq  2060 <strlen@plt>
    3876:	48 89 c2             	mov    %rax,%rdx
    3879:	48 8d 85 5a ff ff ff 	lea    -0xa6(%rbp),%rax
    3880:	48 8d 35 1b 1b 00 00 	lea    0x1b1b(%rip),%rsi        # 53a2 <edger8r_type_attributes::__PRETTY_FUNCTION__+0x92>
    3887:	48 89 c7             	mov    %rax,%rdi
    388a:	e8 e1 e7 ff ff       	callq  2070 <memcmp@plt>
    388f:	85 c0                	test   %eax,%eax
    3891:	74 1f                	je     38b2 <edger8r_pointer_attributes+0x455>
    3893:	48 8d 0d 66 1c 00 00 	lea    0x1c66(%rip),%rcx        # 5500 <edger8r_pointer_attributes::__PRETTY_FUNCTION__>
    389a:	ba 5b 00 00 00       	mov    $0x5b,%edx
    389f:	48 8d 35 aa 1a 00 00 	lea    0x1aaa(%rip),%rsi        # 5350 <edger8r_type_attributes::__PRETTY_FUNCTION__+0x40>
    38a6:	48 8d 3d 9b 1b 00 00 	lea    0x1b9b(%rip),%rdi        # 5448 <edger8r_type_attributes::__PRETTY_FUNCTION__+0x138>
    38ad:	e8 2e e8 ff ff       	callq  20e0 <__assert_fail@plt>
    38b2:	48 b8 31 32 33 34 35 	movabs $0x3837363534333231,%rax
    38b9:	36 37 38 
    38bc:	48 89 85 65 ff ff ff 	mov    %rax,-0x9b(%rbp)
    38c3:	66 c7 85 6d ff ff ff 	movw   $0x3039,-0x93(%rbp)
    38ca:	39 30 
    38cc:	c6 85 6f ff ff ff 00 	movb   $0x0,-0x91(%rbp)
    38d3:	48 8d 85 65 ff ff ff 	lea    -0x9b(%rbp),%rax
    38da:	48 89 c7             	mov    %rax,%rdi
    38dd:	e8 7e e7 ff ff       	callq  2060 <strlen@plt>
    38e2:	48 89 c2             	mov    %rax,%rdx
    38e5:	48 8d 05 ac 48 00 00 	lea    0x48ac(%rip),%rax        # 8198 <global_eid>
    38ec:	48 8b 00             	mov    (%rax),%rax
    38ef:	48 8d 8d 65 ff ff ff 	lea    -0x9b(%rbp),%rcx
    38f6:	48 89 ce             	mov    %rcx,%rsi
    38f9:	48 89 c7             	mov    %rax,%rdi
    38fc:	e8 ae f2 ff ff       	callq  2baf <ecall_pointer_isptr_readonly>
    3901:	89 85 04 ff ff ff    	mov    %eax,-0xfc(%rbp)
    3907:	83 bd 04 ff ff ff 00 	cmpl   $0x0,-0xfc(%rbp)
    390e:	74 05                	je     3915 <edger8r_pointer_attributes+0x4b8>
    3910:	e8 ab e7 ff ff       	callq  20c0 <abort@plt>
    3915:	48 8d 85 65 ff ff ff 	lea    -0x9b(%rbp),%rax
    391c:	48 89 c7             	mov    %rax,%rdi
    391f:	e8 3c e7 ff ff       	callq  2060 <strlen@plt>
    3924:	48 83 f8 0a          	cmp    $0xa,%rax
    3928:	75 2c                	jne    3956 <edger8r_pointer_attributes+0x4f9>
    392a:	48 8d 85 65 ff ff ff 	lea    -0x9b(%rbp),%rax
    3931:	48 89 c7             	mov    %rax,%rdi
    3934:	e8 27 e7 ff ff       	callq  2060 <strlen@plt>
    3939:	48 89 c2             	mov    %rax,%rdx
    393c:	48 8d 85 65 ff ff ff 	lea    -0x9b(%rbp),%rax
    3943:	48 8d 35 aa 1a 00 00 	lea    0x1aaa(%rip),%rsi        # 53f4 <edger8r_type_attributes::__PRETTY_FUNCTION__+0xe4>
    394a:	48 89 c7             	mov    %rax,%rdi
    394d:	e8 1e e7 ff ff       	callq  2070 <memcmp@plt>
    3952:	85 c0                	test   %eax,%eax
    3954:	74 1f                	je     3975 <edger8r_pointer_attributes+0x518>
    3956:	48 8d 0d a3 1b 00 00 	lea    0x1ba3(%rip),%rcx        # 5500 <edger8r_pointer_attributes::__PRETTY_FUNCTION__>
    395d:	ba 61 00 00 00       	mov    $0x61,%edx
    3962:	48 8d 35 e7 19 00 00 	lea    0x19e7(%rip),%rsi        # 5350 <edger8r_type_attributes::__PRETTY_FUNCTION__+0x40>
    3969:	48 8d 3d 20 1b 00 00 	lea    0x1b20(%rip),%rdi        # 5490 <edger8r_type_attributes::__PRETTY_FUNCTION__+0x180>
    3970:	e8 6b e7 ff ff       	callq  20e0 <__assert_fail@plt>
    3975:	c7 85 10 ff ff ff 00 	movl   $0x0,-0xf0(%rbp)
    397c:	00 00 00 
    397f:	c7 85 14 ff ff ff 01 	movl   $0x1,-0xec(%rbp)
    3986:	00 00 00 
    3989:	c7 85 18 ff ff ff 02 	movl   $0x2,-0xe8(%rbp)
    3990:	00 00 00 
    3993:	c7 85 1c ff ff ff 03 	movl   $0x3,-0xe4(%rbp)
    399a:	00 00 00 
    399d:	c7 85 20 ff ff ff 04 	movl   $0x4,-0xe0(%rbp)
    39a4:	00 00 00 
    39a7:	c7 85 24 ff ff ff 05 	movl   $0x5,-0xdc(%rbp)
    39ae:	00 00 00 
    39b1:	c7 85 28 ff ff ff 06 	movl   $0x6,-0xd8(%rbp)
    39b8:	00 00 00 
    39bb:	c7 85 2c ff ff ff 07 	movl   $0x7,-0xd4(%rbp)
    39c2:	00 00 00 
    39c5:	c7 85 30 ff ff ff 08 	movl   $0x8,-0xd0(%rbp)
    39cc:	00 00 00 
    39cf:	c7 85 34 ff ff ff 09 	movl   $0x9,-0xcc(%rbp)
    39d6:	00 00 00 
    39d9:	48 8d 05 b8 47 00 00 	lea    0x47b8(%rip),%rax        # 8198 <global_eid>
    39e0:	48 8b 00             	mov    (%rax),%rax
    39e3:	48 8d 8d 10 ff ff ff 	lea    -0xf0(%rbp),%rcx
    39ea:	ba 0a 00 00 00       	mov    $0xa,%edx
    39ef:	48 89 ce             	mov    %rcx,%rsi
    39f2:	48 89 c7             	mov    %rax,%rdi
    39f5:	e8 47 f1 ff ff       	callq  2b41 <ecall_pointer_count>
    39fa:	89 85 04 ff ff ff    	mov    %eax,-0xfc(%rbp)
    3a00:	83 bd 04 ff ff ff 00 	cmpl   $0x0,-0xfc(%rbp)
    3a07:	74 05                	je     3a0e <edger8r_pointer_attributes+0x5b1>
    3a09:	e8 b2 e6 ff ff       	callq  20c0 <abort@plt>
    3a0e:	c7 85 00 ff ff ff 00 	movl   $0x0,-0x100(%rbp)
    3a15:	00 00 00 
    3a18:	83 bd 00 ff ff ff 09 	cmpl   $0x9,-0x100(%rbp)
    3a1f:	7f 46                	jg     3a67 <edger8r_pointer_attributes+0x60a>
    3a21:	8b 85 00 ff ff ff    	mov    -0x100(%rbp),%eax
    3a27:	48 98                	cltq   
    3a29:	8b 94 85 10 ff ff ff 	mov    -0xf0(%rbp,%rax,4),%edx
    3a30:	b8 09 00 00 00       	mov    $0x9,%eax
    3a35:	2b 85 00 ff ff ff    	sub    -0x100(%rbp),%eax
    3a3b:	39 c2                	cmp    %eax,%edx
    3a3d:	74 1f                	je     3a5e <edger8r_pointer_attributes+0x601>
    3a3f:	48 8d 0d ba 1a 00 00 	lea    0x1aba(%rip),%rcx        # 5500 <edger8r_pointer_attributes::__PRETTY_FUNCTION__>
    3a46:	ba 69 00 00 00       	mov    $0x69,%edx
    3a4b:	48 8d 35 fe 18 00 00 	lea    0x18fe(%rip),%rsi        # 5350 <edger8r_type_attributes::__PRETTY_FUNCTION__+0x40>
    3a52:	48 8d 3d 7b 1a 00 00 	lea    0x1a7b(%rip),%rdi        # 54d4 <edger8r_type_attributes::__PRETTY_FUNCTION__+0x1c4>
    3a59:	e8 82 e6 ff ff       	callq  20e0 <__assert_fail@plt>
    3a5e:	83 85 00 ff ff ff 01 	addl   $0x1,-0x100(%rbp)
    3a65:	eb b1                	jmp    3a18 <edger8r_pointer_attributes+0x5bb>
    3a67:	90                   	nop
    3a68:	48 8b 45 f8          	mov    -0x8(%rbp),%rax
    3a6c:	64 48 33 04 25 28 00 	xor    %fs:0x28,%rax
    3a73:	00 00 
    3a75:	74 05                	je     3a7c <edger8r_pointer_attributes+0x61f>
    3a77:	e8 c4 e6 ff ff       	callq  2140 <__stack_chk_fail@plt>
    3a7c:	c9                   	leaveq 
    3a7d:	c3                   	retq   

0000000000003a7e <ocall_pointer_user_check>:
    3a7e:	55                   	push   %rbp
    3a7f:	48 89 e5             	mov    %rsp,%rbp
    3a82:	48 83 ec 10          	sub    $0x10,%rsp
    3a86:	48 89 7d f8          	mov    %rdi,-0x8(%rbp)
    3a8a:	48 83 7d f8 00       	cmpq   $0x0,-0x8(%rbp)
    3a8f:	75 1f                	jne    3ab0 <ocall_pointer_user_check+0x32>
    3a91:	48 8d 0d a8 1a 00 00 	lea    0x1aa8(%rip),%rcx        # 5540 <ocall_pointer_user_check::__PRETTY_FUNCTION__>
    3a98:	ba 74 00 00 00       	mov    $0x74,%edx
    3a9d:	48 8d 35 ac 18 00 00 	lea    0x18ac(%rip),%rsi        # 5350 <edger8r_type_attributes::__PRETTY_FUNCTION__+0x40>
    3aa4:	48 8d 3d 3b 1a 00 00 	lea    0x1a3b(%rip),%rdi        # 54e6 <edger8r_type_attributes::__PRETTY_FUNCTION__+0x1d6>
    3aab:	e8 30 e6 ff ff       	callq  20e0 <__assert_fail@plt>
    3ab0:	90                   	nop
    3ab1:	c9                   	leaveq 
    3ab2:	c3                   	retq   

0000000000003ab3 <ocall_pointer_in>:
    3ab3:	55                   	push   %rbp
    3ab4:	48 89 e5             	mov    %rsp,%rbp
    3ab7:	48 89 7d f8          	mov    %rdi,-0x8(%rbp)
    3abb:	48 8b 45 f8          	mov    -0x8(%rbp),%rax
    3abf:	c7 00 d2 04 00 00    	movl   $0x4d2,(%rax)
    3ac5:	90                   	nop
    3ac6:	5d                   	pop    %rbp
    3ac7:	c3                   	retq   

0000000000003ac8 <ocall_pointer_out>:
    3ac8:	55                   	push   %rbp
    3ac9:	48 89 e5             	mov    %rsp,%rbp
    3acc:	48 89 7d f8          	mov    %rdi,-0x8(%rbp)
    3ad0:	48 8b 45 f8          	mov    -0x8(%rbp),%rax
    3ad4:	c7 00 d2 04 00 00    	movl   $0x4d2,(%rax)
    3ada:	90                   	nop
    3adb:	5d                   	pop    %rbp
    3adc:	c3                   	retq   

0000000000003add <ocall_pointer_in_out>:
    3add:	55                   	push   %rbp
    3ade:	48 89 e5             	mov    %rsp,%rbp
    3ae1:	48 89 7d f8          	mov    %rdi,-0x8(%rbp)
    3ae5:	48 8b 45 f8          	mov    -0x8(%rbp),%rax
    3ae9:	c7 00 d2 04 00 00    	movl   $0x4d2,(%rax)
    3aef:	90                   	nop
    3af0:	5d                   	pop    %rbp
    3af1:	c3                   	retq   

0000000000003af2 <edger8r_array_attributes>:
    3af2:	55                   	push   %rbp
    3af3:	48 89 e5             	mov    %rsp,%rbp
    3af6:	48 81 ec 90 00 00 00 	sub    $0x90,%rsp
    3afd:	64 48 8b 04 25 28 00 	mov    %fs:0x28,%rax
    3b04:	00 00 
    3b06:	48 89 45 f8          	mov    %rax,-0x8(%rbp)
    3b0a:	31 c0                	xor    %eax,%eax
    3b0c:	c7 45 8c 01 00 00 00 	movl   $0x1,-0x74(%rbp)
    3b13:	c7 45 90 00 00 00 00 	movl   $0x0,-0x70(%rbp)
    3b1a:	c7 45 94 01 00 00 00 	movl   $0x1,-0x6c(%rbp)
    3b21:	c7 45 98 02 00 00 00 	movl   $0x2,-0x68(%rbp)
    3b28:	c7 45 9c 03 00 00 00 	movl   $0x3,-0x64(%rbp)
    3b2f:	48 8d 05 62 46 00 00 	lea    0x4662(%rip),%rax        # 8198 <global_eid>
    3b36:	48 8b 00             	mov    (%rax),%rax
    3b39:	48 8d 55 90          	lea    -0x70(%rbp),%rdx
    3b3d:	48 89 d6             	mov    %rdx,%rsi
    3b40:	48 89 c7             	mov    %rax,%rdi
    3b43:	e8 06 f1 ff ff       	callq  2c4e <ecall_array_user_check>
    3b48:	89 45 8c             	mov    %eax,-0x74(%rbp)
    3b4b:	83 7d 8c 00          	cmpl   $0x0,-0x74(%rbp)
    3b4f:	74 05                	je     3b56 <edger8r_array_attributes+0x64>
    3b51:	e8 6a e5 ff ff       	callq  20c0 <abort@plt>
    3b56:	c7 85 78 ff ff ff 00 	movl   $0x0,-0x88(%rbp)
    3b5d:	00 00 00 
    3b60:	83 bd 78 ff ff ff 03 	cmpl   $0x3,-0x88(%rbp)
    3b67:	7f 43                	jg     3bac <edger8r_array_attributes+0xba>
    3b69:	8b 85 78 ff ff ff    	mov    -0x88(%rbp),%eax
    3b6f:	48 98                	cltq   
    3b71:	8b 54 85 90          	mov    -0x70(%rbp,%rax,4),%edx
    3b75:	b8 03 00 00 00       	mov    $0x3,%eax
    3b7a:	2b 85 78 ff ff ff    	sub    -0x88(%rbp),%eax
    3b80:	39 c2                	cmp    %eax,%edx
    3b82:	74 1f                	je     3ba3 <edger8r_array_attributes+0xb1>
    3b84:	48 8d 0d 75 1a 00 00 	lea    0x1a75(%rip),%rcx        # 5600 <edger8r_array_attributes::__PRETTY_FUNCTION__>
    3b8b:	ba 33 00 00 00       	mov    $0x33,%edx
    3b90:	48 8d 35 e9 19 00 00 	lea    0x19e9(%rip),%rsi        # 5580 <ocall_pointer_user_check::__PRETTY_FUNCTION__+0x40>
    3b97:	48 8d 3d ff 19 00 00 	lea    0x19ff(%rip),%rdi        # 559d <ocall_pointer_user_check::__PRETTY_FUNCTION__+0x5d>
    3b9e:	e8 3d e5 ff ff       	callq  20e0 <__assert_fail@plt>
    3ba3:	83 85 78 ff ff ff 01 	addl   $0x1,-0x88(%rbp)
    3baa:	eb b4                	jmp    3b60 <edger8r_array_attributes+0x6e>
    3bac:	c7 45 a0 00 00 00 00 	movl   $0x0,-0x60(%rbp)
    3bb3:	c7 45 a4 01 00 00 00 	movl   $0x1,-0x5c(%rbp)
    3bba:	c7 45 a8 02 00 00 00 	movl   $0x2,-0x58(%rbp)
    3bc1:	c7 45 ac 03 00 00 00 	movl   $0x3,-0x54(%rbp)
    3bc8:	48 8d 05 c9 45 00 00 	lea    0x45c9(%rip),%rax        # 8198 <global_eid>
    3bcf:	48 8b 00             	mov    (%rax),%rax
    3bd2:	48 8d 55 a0          	lea    -0x60(%rbp),%rdx
    3bd6:	48 89 d6             	mov    %rdx,%rsi
    3bd9:	48 89 c7             	mov    %rax,%rdi
    3bdc:	e8 cf f0 ff ff       	callq  2cb0 <ecall_array_in>
    3be1:	89 45 8c             	mov    %eax,-0x74(%rbp)
    3be4:	83 7d 8c 00          	cmpl   $0x0,-0x74(%rbp)
    3be8:	74 05                	je     3bef <edger8r_array_attributes+0xfd>
    3bea:	e8 d1 e4 ff ff       	callq  20c0 <abort@plt>
    3bef:	c7 85 7c ff ff ff 00 	movl   $0x0,-0x84(%rbp)
    3bf6:	00 00 00 
    3bf9:	83 bd 7c ff ff ff 03 	cmpl   $0x3,-0x84(%rbp)
    3c00:	7f 3c                	jg     3c3e <edger8r_array_attributes+0x14c>
    3c02:	8b 85 7c ff ff ff    	mov    -0x84(%rbp),%eax
    3c08:	48 98                	cltq   
    3c0a:	8b 44 85 a0          	mov    -0x60(%rbp,%rax,4),%eax
    3c0e:	39 85 7c ff ff ff    	cmp    %eax,-0x84(%rbp)
    3c14:	74 1f                	je     3c35 <edger8r_array_attributes+0x143>
    3c16:	48 8d 0d e3 19 00 00 	lea    0x19e3(%rip),%rcx        # 5600 <edger8r_array_attributes::__PRETTY_FUNCTION__>
    3c1d:	ba 3d 00 00 00       	mov    $0x3d,%edx
    3c22:	48 8d 35 57 19 00 00 	lea    0x1957(%rip),%rsi        # 5580 <ocall_pointer_user_check::__PRETTY_FUNCTION__+0x40>
    3c29:	48 8d 3d 80 19 00 00 	lea    0x1980(%rip),%rdi        # 55b0 <ocall_pointer_user_check::__PRETTY_FUNCTION__+0x70>
    3c30:	e8 ab e4 ff ff       	callq  20e0 <__assert_fail@plt>
    3c35:	83 85 7c ff ff ff 01 	addl   $0x1,-0x84(%rbp)
    3c3c:	eb bb                	jmp    3bf9 <edger8r_array_attributes+0x107>
    3c3e:	c7 45 b0 00 00 00 00 	movl   $0x0,-0x50(%rbp)
    3c45:	c7 45 b4 01 00 00 00 	movl   $0x1,-0x4c(%rbp)
    3c4c:	c7 45 b8 02 00 00 00 	movl   $0x2,-0x48(%rbp)
    3c53:	c7 45 bc 03 00 00 00 	movl   $0x3,-0x44(%rbp)
    3c5a:	48 8d 05 37 45 00 00 	lea    0x4537(%rip),%rax        # 8198 <global_eid>
    3c61:	48 8b 00             	mov    (%rax),%rax
    3c64:	48 8d 55 b0          	lea    -0x50(%rbp),%rdx
    3c68:	48 89 d6             	mov    %rdx,%rsi
    3c6b:	48 89 c7             	mov    %rax,%rdi
    3c6e:	e8 9f f0 ff ff       	callq  2d12 <ecall_array_out>
    3c73:	89 45 8c             	mov    %eax,-0x74(%rbp)
    3c76:	83 7d 8c 00          	cmpl   $0x0,-0x74(%rbp)
    3c7a:	74 05                	je     3c81 <edger8r_array_attributes+0x18f>
    3c7c:	e8 3f e4 ff ff       	callq  20c0 <abort@plt>
    3c81:	c7 45 80 00 00 00 00 	movl   $0x0,-0x80(%rbp)
    3c88:	83 7d 80 03          	cmpl   $0x3,-0x80(%rbp)
    3c8c:	7f 3a                	jg     3cc8 <edger8r_array_attributes+0x1d6>
    3c8e:	8b 45 80             	mov    -0x80(%rbp),%eax
    3c91:	48 98                	cltq   
    3c93:	8b 54 85 b0          	mov    -0x50(%rbp,%rax,4),%edx
    3c97:	b8 03 00 00 00       	mov    $0x3,%eax
    3c9c:	2b 45 80             	sub    -0x80(%rbp),%eax
    3c9f:	39 c2                	cmp    %eax,%edx
    3ca1:	74 1f                	je     3cc2 <edger8r_array_attributes+0x1d0>
    3ca3:	48 8d 0d 56 19 00 00 	lea    0x1956(%rip),%rcx        # 5600 <edger8r_array_attributes::__PRETTY_FUNCTION__>
    3caa:	ba 47 00 00 00       	mov    $0x47,%edx
    3caf:	48 8d 35 ca 18 00 00 	lea    0x18ca(%rip),%rsi        # 5580 <ocall_pointer_user_check::__PRETTY_FUNCTION__+0x40>
    3cb6:	48 8d 3d 00 19 00 00 	lea    0x1900(%rip),%rdi        # 55bd <ocall_pointer_user_check::__PRETTY_FUNCTION__+0x7d>
    3cbd:	e8 1e e4 ff ff       	callq  20e0 <__assert_fail@plt>
    3cc2:	83 45 80 01          	addl   $0x1,-0x80(%rbp)
    3cc6:	eb c0                	jmp    3c88 <edger8r_array_attributes+0x196>
    3cc8:	c7 45 c0 00 00 00 00 	movl   $0x0,-0x40(%rbp)
    3ccf:	c7 45 c4 01 00 00 00 	movl   $0x1,-0x3c(%rbp)
    3cd6:	c7 45 c8 02 00 00 00 	movl   $0x2,-0x38(%rbp)
    3cdd:	c7 45 cc 03 00 00 00 	movl   $0x3,-0x34(%rbp)
    3ce4:	48 8d 05 ad 44 00 00 	lea    0x44ad(%rip),%rax        # 8198 <global_eid>
    3ceb:	48 8b 00             	mov    (%rax),%rax
    3cee:	48 8d 55 c0          	lea    -0x40(%rbp),%rdx
    3cf2:	48 89 d6             	mov    %rdx,%rsi
    3cf5:	48 89 c7             	mov    %rax,%rdi
    3cf8:	e8 77 f0 ff ff       	callq  2d74 <ecall_array_in_out>
    3cfd:	89 45 8c             	mov    %eax,-0x74(%rbp)
    3d00:	83 7d 8c 00          	cmpl   $0x0,-0x74(%rbp)
    3d04:	74 05                	je     3d0b <edger8r_array_attributes+0x219>
    3d06:	e8 b5 e3 ff ff       	callq  20c0 <abort@plt>
    3d0b:	c7 45 84 00 00 00 00 	movl   $0x0,-0x7c(%rbp)
    3d12:	83 7d 84 03          	cmpl   $0x3,-0x7c(%rbp)
    3d16:	7f 3a                	jg     3d52 <edger8r_array_attributes+0x260>
    3d18:	8b 45 84             	mov    -0x7c(%rbp),%eax
    3d1b:	48 98                	cltq   
    3d1d:	8b 54 85 c0          	mov    -0x40(%rbp,%rax,4),%edx
    3d21:	b8 03 00 00 00       	mov    $0x3,%eax
    3d26:	2b 45 84             	sub    -0x7c(%rbp),%eax
    3d29:	39 c2                	cmp    %eax,%edx
    3d2b:	74 1f                	je     3d4c <edger8r_array_attributes+0x25a>
    3d2d:	48 8d 0d cc 18 00 00 	lea    0x18cc(%rip),%rcx        # 5600 <edger8r_array_attributes::__PRETTY_FUNCTION__>
    3d34:	ba 51 00 00 00       	mov    $0x51,%edx
    3d39:	48 8d 35 40 18 00 00 	lea    0x1840(%rip),%rsi        # 5580 <ocall_pointer_user_check::__PRETTY_FUNCTION__+0x40>
    3d40:	48 8d 3d 89 18 00 00 	lea    0x1889(%rip),%rdi        # 55d0 <ocall_pointer_user_check::__PRETTY_FUNCTION__+0x90>
    3d47:	e8 94 e3 ff ff       	callq  20e0 <__assert_fail@plt>
    3d4c:	83 45 84 01          	addl   $0x1,-0x7c(%rbp)
    3d50:	eb c0                	jmp    3d12 <edger8r_array_attributes+0x220>
    3d52:	c7 45 d0 00 00 00 00 	movl   $0x0,-0x30(%rbp)
    3d59:	c7 45 d4 01 00 00 00 	movl   $0x1,-0x2c(%rbp)
    3d60:	c7 45 d8 02 00 00 00 	movl   $0x2,-0x28(%rbp)
    3d67:	c7 45 dc 03 00 00 00 	movl   $0x3,-0x24(%rbp)
    3d6e:	c7 45 e0 04 00 00 00 	movl   $0x4,-0x20(%rbp)
    3d75:	c7 45 e4 05 00 00 00 	movl   $0x5,-0x1c(%rbp)
    3d7c:	c7 45 e8 06 00 00 00 	movl   $0x6,-0x18(%rbp)
    3d83:	c7 45 ec 07 00 00 00 	movl   $0x7,-0x14(%rbp)
    3d8a:	c7 45 f0 08 00 00 00 	movl   $0x8,-0x10(%rbp)
    3d91:	c7 45 f4 09 00 00 00 	movl   $0x9,-0xc(%rbp)
    3d98:	48 8d 05 f9 43 00 00 	lea    0x43f9(%rip),%rax        # 8198 <global_eid>
    3d9f:	48 8b 00             	mov    (%rax),%rax
    3da2:	48 8d 55 d0          	lea    -0x30(%rbp),%rdx
    3da6:	48 89 d6             	mov    %rdx,%rsi
    3da9:	48 89 c7             	mov    %rax,%rdi
    3dac:	e8 25 f0 ff ff       	callq  2dd6 <ecall_array_isary>
    3db1:	89 45 8c             	mov    %eax,-0x74(%rbp)
    3db4:	83 7d 8c 00          	cmpl   $0x0,-0x74(%rbp)
    3db8:	74 05                	je     3dbf <edger8r_array_attributes+0x2cd>
    3dba:	e8 01 e3 ff ff       	callq  20c0 <abort@plt>
    3dbf:	c7 45 88 00 00 00 00 	movl   $0x0,-0x78(%rbp)
    3dc6:	83 7d 88 09          	cmpl   $0x9,-0x78(%rbp)
    3dca:	7f 3a                	jg     3e06 <edger8r_array_attributes+0x314>
    3dcc:	8b 45 88             	mov    -0x78(%rbp),%eax
    3dcf:	48 98                	cltq   
    3dd1:	8b 54 85 d0          	mov    -0x30(%rbp,%rax,4),%edx
    3dd5:	b8 09 00 00 00       	mov    $0x9,%eax
    3dda:	2b 45 88             	sub    -0x78(%rbp),%eax
    3ddd:	39 c2                	cmp    %eax,%edx
    3ddf:	74 1f                	je     3e00 <edger8r_array_attributes+0x30e>
    3de1:	48 8d 0d 18 18 00 00 	lea    0x1818(%rip),%rcx        # 5600 <edger8r_array_attributes::__PRETTY_FUNCTION__>
    3de8:	ba 5b 00 00 00       	mov    $0x5b,%edx
    3ded:	48 8d 35 8c 17 00 00 	lea    0x178c(%rip),%rsi        # 5580 <ocall_pointer_user_check::__PRETTY_FUNCTION__+0x40>
    3df4:	48 8d 3d e8 17 00 00 	lea    0x17e8(%rip),%rdi        # 55e3 <ocall_pointer_user_check::__PRETTY_FUNCTION__+0xa3>
    3dfb:	e8 e0 e2 ff ff       	callq  20e0 <__assert_fail@plt>
    3e00:	83 45 88 01          	addl   $0x1,-0x78(%rbp)
    3e04:	eb c0                	jmp    3dc6 <edger8r_array_attributes+0x2d4>
    3e06:	90                   	nop
    3e07:	48 8b 45 f8          	mov    -0x8(%rbp),%rax
    3e0b:	64 48 33 04 25 28 00 	xor    %fs:0x28,%rax
    3e12:	00 00 
    3e14:	74 05                	je     3e1b <edger8r_array_attributes+0x329>
    3e16:	e8 25 e3 ff ff       	callq  2140 <__stack_chk_fail@plt>
    3e1b:	c9                   	leaveq 
    3e1c:	c3                   	retq   

0000000000003e1d <edger8r_function_attributes>:
    3e1d:	55                   	push   %rbp
    3e1e:	48 89 e5             	mov    %rsp,%rbp
    3e21:	48 83 ec 10          	sub    $0x10,%rsp
    3e25:	64 48 8b 04 25 28 00 	mov    %fs:0x28,%rax
    3e2c:	00 00 
    3e2e:	48 89 45 f8          	mov    %rax,-0x8(%rbp)
    3e32:	31 c0                	xor    %eax,%eax
    3e34:	c7 45 f4 01 00 00 00 	movl   $0x1,-0xc(%rbp)
    3e3b:	48 8d 05 56 43 00 00 	lea    0x4356(%rip),%rax        # 8198 <global_eid>
    3e42:	48 8b 00             	mov    (%rax),%rax
    3e45:	48 89 c7             	mov    %rax,%rdi
    3e48:	e8 eb ef ff ff       	callq  2e38 <ecall_function_public>
    3e4d:	89 45 f4             	mov    %eax,-0xc(%rbp)
    3e50:	83 7d f4 00          	cmpl   $0x0,-0xc(%rbp)
    3e54:	74 05                	je     3e5b <edger8r_function_attributes+0x3e>
    3e56:	e8 65 e2 ff ff       	callq  20c0 <abort@plt>
    3e5b:	c7 45 f0 00 00 00 00 	movl   $0x0,-0x10(%rbp)
    3e62:	48 8d 05 2f 43 00 00 	lea    0x432f(%rip),%rax        # 8198 <global_eid>
    3e69:	48 8b 00             	mov    (%rax),%rax
    3e6c:	48 8d 55 f0          	lea    -0x10(%rbp),%rdx
    3e70:	48 89 d6             	mov    %rdx,%rsi
    3e73:	48 89 c7             	mov    %rax,%rdi
    3e76:	e8 ee ef ff ff       	callq  2e69 <ecall_function_private>
    3e7b:	89 45 f4             	mov    %eax,-0xc(%rbp)
    3e7e:	81 7d f4 07 10 00 00 	cmpl   $0x1007,-0xc(%rbp)
    3e85:	75 07                	jne    3e8e <edger8r_function_attributes+0x71>
    3e87:	8b 45 f0             	mov    -0x10(%rbp),%eax
    3e8a:	85 c0                	test   %eax,%eax
    3e8c:	74 05                	je     3e93 <edger8r_function_attributes+0x76>
    3e8e:	e8 2d e2 ff ff       	callq  20c0 <abort@plt>
    3e93:	90                   	nop
    3e94:	48 8b 45 f8          	mov    -0x8(%rbp),%rax
    3e98:	64 48 33 04 25 28 00 	xor    %fs:0x28,%rax
    3e9f:	00 00 
    3ea1:	74 05                	je     3ea8 <edger8r_function_attributes+0x8b>
    3ea3:	e8 98 e2 ff ff       	callq  2140 <__stack_chk_fail@plt>
    3ea8:	c9                   	leaveq 
    3ea9:	c3                   	retq   

0000000000003eaa <ocall_function_allow>:
    3eaa:	55                   	push   %rbp
    3eab:	48 89 e5             	mov    %rsp,%rbp
    3eae:	48 83 ec 10          	sub    $0x10,%rsp
    3eb2:	64 48 8b 04 25 28 00 	mov    %fs:0x28,%rax
    3eb9:	00 00 
    3ebb:	48 89 45 f8          	mov    %rax,-0x8(%rbp)
    3ebf:	31 c0                	xor    %eax,%eax
    3ec1:	c7 45 f0 00 00 00 00 	movl   $0x0,-0x10(%rbp)
    3ec8:	c7 45 f4 01 00 00 00 	movl   $0x1,-0xc(%rbp)
    3ecf:	48 8d 05 c2 42 00 00 	lea    0x42c2(%rip),%rax        # 8198 <global_eid>
    3ed6:	48 8b 00             	mov    (%rax),%rax
    3ed9:	48 8d 55 f0          	lea    -0x10(%rbp),%rdx
    3edd:	48 89 d6             	mov    %rdx,%rsi
    3ee0:	48 89 c7             	mov    %rax,%rdi
    3ee3:	e8 81 ef ff ff       	callq  2e69 <ecall_function_private>
    3ee8:	89 45 f4             	mov    %eax,-0xc(%rbp)
    3eeb:	83 7d f4 00          	cmpl   $0x0,-0xc(%rbp)
    3eef:	75 08                	jne    3ef9 <ocall_function_allow+0x4f>
    3ef1:	8b 45 f0             	mov    -0x10(%rbp),%eax
    3ef4:	83 f8 01             	cmp    $0x1,%eax
    3ef7:	74 05                	je     3efe <ocall_function_allow+0x54>
    3ef9:	e8 c2 e1 ff ff       	callq  20c0 <abort@plt>
    3efe:	90                   	nop
    3eff:	48 8b 45 f8          	mov    -0x8(%rbp),%rax
    3f03:	64 48 33 04 25 28 00 	xor    %fs:0x28,%rax
    3f0a:	00 00 
    3f0c:	74 05                	je     3f13 <ocall_function_allow+0x69>
    3f0e:	e8 2d e2 ff ff       	callq  2140 <__stack_chk_fail@plt>
    3f13:	c9                   	leaveq 
    3f14:	c3                   	retq   

0000000000003f15 <increase_counter()>:
    3f15:	55                   	push   %rbp
    3f16:	48 89 e5             	mov    %rsp,%rbp
    3f19:	48 83 ec 20          	sub    $0x20,%rsp
    3f1d:	64 48 8b 04 25 28 00 	mov    %fs:0x28,%rax
    3f24:	00 00 
    3f26:	48 89 45 f8          	mov    %rax,-0x8(%rbp)
    3f2a:	31 c0                	xor    %eax,%eax
    3f2c:	48 c7 45 f0 00 00 00 	movq   $0x0,-0x10(%rbp)
    3f33:	00 
    3f34:	c7 45 ec 01 00 00 00 	movl   $0x1,-0x14(%rbp)
    3f3b:	48 8d 05 56 42 00 00 	lea    0x4256(%rip),%rax        # 8198 <global_eid>
    3f42:	48 8b 00             	mov    (%rax),%rax
    3f45:	48 8d 55 f0          	lea    -0x10(%rbp),%rdx
    3f49:	48 89 d6             	mov    %rdx,%rsi
    3f4c:	48 89 c7             	mov    %rax,%rdi
    3f4f:	e8 83 f0 ff ff       	callq  2fd7 <ecall_increase_counter>
    3f54:	89 45 ec             	mov    %eax,-0x14(%rbp)
    3f57:	48 8b 45 f0          	mov    -0x10(%rbp),%rax
    3f5b:	48 85 c0             	test   %rax,%rax
    3f5e:	74 0b                	je     3f6b <increase_counter()+0x56>
    3f60:	48 8b 45 f0          	mov    -0x10(%rbp),%rax
    3f64:	48 89 05 35 42 00 00 	mov    %rax,0x4235(%rip)        # 81a0 <counter>
    3f6b:	83 7d ec 00          	cmpl   $0x0,-0x14(%rbp)
    3f6f:	74 05                	je     3f76 <increase_counter()+0x61>
    3f71:	e8 4a e1 ff ff       	callq  20c0 <abort@plt>
    3f76:	90                   	nop
    3f77:	48 8b 45 f8          	mov    -0x8(%rbp),%rax
    3f7b:	64 48 33 04 25 28 00 	xor    %fs:0x28,%rax
    3f82:	00 00 
    3f84:	74 05                	je     3f8b <increase_counter()+0x76>
    3f86:	e8 b5 e1 ff ff       	callq  2140 <__stack_chk_fail@plt>
    3f8b:	c9                   	leaveq 
    3f8c:	c3                   	retq   

0000000000003f8d <data_producer()>:
    3f8d:	55                   	push   %rbp
    3f8e:	48 89 e5             	mov    %rsp,%rbp
    3f91:	48 83 ec 10          	sub    $0x10,%rsp
    3f95:	c7 45 fc 01 00 00 00 	movl   $0x1,-0x4(%rbp)
    3f9c:	48 8d 05 f5 41 00 00 	lea    0x41f5(%rip),%rax        # 8198 <global_eid>
    3fa3:	48 8b 00             	mov    (%rax),%rax
    3fa6:	48 89 c7             	mov    %rax,%rdi
    3fa9:	e8 9b f0 ff ff       	callq  3049 <ecall_producer>
    3fae:	89 45 fc             	mov    %eax,-0x4(%rbp)
    3fb1:	83 7d fc 00          	cmpl   $0x0,-0x4(%rbp)
    3fb5:	74 05                	je     3fbc <data_producer()+0x2f>
    3fb7:	e8 04 e1 ff ff       	callq  20c0 <abort@plt>
    3fbc:	90                   	nop
    3fbd:	c9                   	leaveq 
    3fbe:	c3                   	retq   

0000000000003fbf <data_consumer()>:
    3fbf:	55                   	push   %rbp
    3fc0:	48 89 e5             	mov    %rsp,%rbp
    3fc3:	48 83 ec 10          	sub    $0x10,%rsp
    3fc7:	c7 45 fc 01 00 00 00 	movl   $0x1,-0x4(%rbp)
    3fce:	48 8d 05 c3 41 00 00 	lea    0x41c3(%rip),%rax        # 8198 <global_eid>
    3fd5:	48 8b 00             	mov    (%rax),%rax
    3fd8:	48 89 c7             	mov    %rax,%rdi
    3fdb:	e8 9a f0 ff ff       	callq  307a <ecall_consumer>
    3fe0:	89 45 fc             	mov    %eax,-0x4(%rbp)
    3fe3:	83 7d fc 00          	cmpl   $0x0,-0x4(%rbp)
    3fe7:	74 05                	je     3fee <data_consumer()+0x2f>
    3fe9:	e8 d2 e0 ff ff       	callq  20c0 <abort@plt>
    3fee:	90                   	nop
    3fef:	c9                   	leaveq 
    3ff0:	c3                   	retq   

0000000000003ff1 <ecall_thread_functions>:
    3ff1:	55                   	push   %rbp
    3ff2:	48 89 e5             	mov    %rsp,%rbp
    3ff5:	53                   	push   %rbx
    3ff6:	48 83 ec 58          	sub    $0x58,%rsp
    3ffa:	64 48 8b 04 25 28 00 	mov    %fs:0x28,%rax
    4001:	00 00 
    4003:	48 89 45 e8          	mov    %rax,-0x18(%rbp)
    4007:	31 c0                	xor    %eax,%eax
    4009:	48 8d 45 a0          	lea    -0x60(%rbp),%rax
    400d:	48 8d 15 01 ff ff ff 	lea    -0xff(%rip),%rdx        # 3f15 <increase_counter()>
    4014:	48 89 d6             	mov    %rdx,%rsi
    4017:	48 89 c7             	mov    %rax,%rdi
    401a:	e8 a3 03 00 00       	callq  43c2 <std::thread::thread<void (&)()>(void (&)())>
    401f:	48 8d 45 a8          	lea    -0x58(%rbp),%rax
    4023:	48 8d 15 eb fe ff ff 	lea    -0x115(%rip),%rdx        # 3f15 <increase_counter()>
    402a:	48 89 d6             	mov    %rdx,%rsi
    402d:	48 89 c7             	mov    %rax,%rdi
    4030:	e8 8d 03 00 00       	callq  43c2 <std::thread::thread<void (&)()>(void (&)())>
    4035:	48 8d 45 b0          	lea    -0x50(%rbp),%rax
    4039:	48 8d 15 d5 fe ff ff 	lea    -0x12b(%rip),%rdx        # 3f15 <increase_counter()>
    4040:	48 89 d6             	mov    %rdx,%rsi
    4043:	48 89 c7             	mov    %rax,%rdi
    4046:	e8 77 03 00 00       	callq  43c2 <std::thread::thread<void (&)()>(void (&)())>
    404b:	48 8d 45 b8          	lea    -0x48(%rbp),%rax
    404f:	48 8d 15 bf fe ff ff 	lea    -0x141(%rip),%rdx        # 3f15 <increase_counter()>
    4056:	48 89 d6             	mov    %rdx,%rsi
    4059:	48 89 c7             	mov    %rax,%rdi
    405c:	e8 61 03 00 00       	callq  43c2 <std::thread::thread<void (&)()>(void (&)())>
    4061:	48 8d 45 a0          	lea    -0x60(%rbp),%rax
    4065:	48 89 c7             	mov    %rax,%rdi
    4068:	e8 13 e1 ff ff       	callq  2180 <std::thread::join()@plt>
    406d:	48 8d 45 a8          	lea    -0x58(%rbp),%rax
    4071:	48 89 c7             	mov    %rax,%rdi
    4074:	e8 07 e1 ff ff       	callq  2180 <std::thread::join()@plt>
    4079:	48 8d 45 b0          	lea    -0x50(%rbp),%rax
    407d:	48 89 c7             	mov    %rax,%rdi
    4080:	e8 fb e0 ff ff       	callq  2180 <std::thread::join()@plt>
    4085:	48 8d 45 b8          	lea    -0x48(%rbp),%rax
    4089:	48 89 c7             	mov    %rax,%rdi
    408c:	e8 ef e0 ff ff       	callq  2180 <std::thread::join()@plt>
    4091:	48 8b 05 08 41 00 00 	mov    0x4108(%rip),%rax        # 81a0 <counter>
    4098:	48 3d d0 07 00 00    	cmp    $0x7d0,%rax
    409e:	74 1f                	je     40bf <ecall_thread_functions+0xce>
    40a0:	48 8d 0d 09 16 00 00 	lea    0x1609(%rip),%rcx        # 56b0 <ecall_thread_functions::__PRETTY_FUNCTION__>
    40a7:	ba 53 00 00 00       	mov    $0x53,%edx
    40ac:	48 8d 35 77 15 00 00 	lea    0x1577(%rip),%rsi        # 562a <std::ignore+0x1>
    40b3:	48 8d 3d 8e 15 00 00 	lea    0x158e(%rip),%rdi        # 5648 <std::ignore+0x1f>
    40ba:	e8 21 e0 ff ff       	callq  20e0 <__assert_fail@plt>
    40bf:	48 8d 3d a2 15 00 00 	lea    0x15a2(%rip),%rdi        # 5668 <std::ignore+0x3f>
    40c6:	e8 a5 e0 ff ff       	callq  2170 <puts@plt>
    40cb:	48 8d 45 c0          	lea    -0x40(%rbp),%rax
    40cf:	48 8d 15 e9 fe ff ff 	lea    -0x117(%rip),%rdx        # 3fbf <data_consumer()>
    40d6:	48 89 d6             	mov    %rdx,%rsi
    40d9:	48 89 c7             	mov    %rax,%rdi
    40dc:	e8 e1 02 00 00       	callq  43c2 <std::thread::thread<void (&)()>(void (&)())>
    40e1:	48 8d 45 c8          	lea    -0x38(%rbp),%rax
    40e5:	48 8d 15 a1 fe ff ff 	lea    -0x15f(%rip),%rdx        # 3f8d <data_producer()>
    40ec:	48 89 d6             	mov    %rdx,%rsi
    40ef:	48 89 c7             	mov    %rax,%rdi
    40f2:	e8 cb 02 00 00       	callq  43c2 <std::thread::thread<void (&)()>(void (&)())>
    40f7:	48 8d 45 d0          	lea    -0x30(%rbp),%rax
    40fb:	48 8d 15 bd fe ff ff 	lea    -0x143(%rip),%rdx        # 3fbf <data_consumer()>
    4102:	48 89 d6             	mov    %rdx,%rsi
    4105:	48 89 c7             	mov    %rax,%rdi
    4108:	e8 b5 02 00 00       	callq  43c2 <std::thread::thread<void (&)()>(void (&)())>
    410d:	48 8d 45 d8          	lea    -0x28(%rbp),%rax
    4111:	48 8d 15 a7 fe ff ff 	lea    -0x159(%rip),%rdx        # 3fbf <data_consumer()>
    4118:	48 89 d6             	mov    %rdx,%rsi
    411b:	48 89 c7             	mov    %rax,%rdi
    411e:	e8 9f 02 00 00       	callq  43c2 <std::thread::thread<void (&)()>(void (&)())>
    4123:	48 8d 45 e0          	lea    -0x20(%rbp),%rax
    4127:	48 8d 15 91 fe ff ff 	lea    -0x16f(%rip),%rdx        # 3fbf <data_consumer()>
    412e:	48 89 d6             	mov    %rdx,%rsi
    4131:	48 89 c7             	mov    %rax,%rdi
    4134:	e8 89 02 00 00       	callq  43c2 <std::thread::thread<void (&)()>(void (&)())>
    4139:	48 8d 45 c0          	lea    -0x40(%rbp),%rax
    413d:	48 89 c7             	mov    %rax,%rdi
    4140:	e8 3b e0 ff ff       	callq  2180 <std::thread::join()@plt>
    4145:	48 8d 45 d0          	lea    -0x30(%rbp),%rax
    4149:	48 89 c7             	mov    %rax,%rdi
    414c:	e8 2f e0 ff ff       	callq  2180 <std::thread::join()@plt>
    4151:	48 8d 45 d8          	lea    -0x28(%rbp),%rax
    4155:	48 89 c7             	mov    %rax,%rdi
    4158:	e8 23 e0 ff ff       	callq  2180 <std::thread::join()@plt>
    415d:	48 8d 45 e0          	lea    -0x20(%rbp),%rax
    4161:	48 89 c7             	mov    %rax,%rdi
    4164:	e8 17 e0 ff ff       	callq  2180 <std::thread::join()@plt>
    4169:	48 8d 45 c8          	lea    -0x38(%rbp),%rax
    416d:	48 89 c7             	mov    %rax,%rdi
    4170:	e8 0b e0 ff ff       	callq  2180 <std::thread::join()@plt>
    4175:	48 8d 45 e0          	lea    -0x20(%rbp),%rax
    4179:	48 89 c7             	mov    %rax,%rdi
    417c:	e8 3d 01 00 00       	callq  42be <std::thread::~thread()>
    4181:	48 8d 45 d8          	lea    -0x28(%rbp),%rax
    4185:	48 89 c7             	mov    %rax,%rdi
    4188:	e8 31 01 00 00       	callq  42be <std::thread::~thread()>
    418d:	48 8d 45 d0          	lea    -0x30(%rbp),%rax
    4191:	48 89 c7             	mov    %rax,%rdi
    4194:	e8 25 01 00 00       	callq  42be <std::thread::~thread()>
    4199:	48 8d 45 c8          	lea    -0x38(%rbp),%rax
    419d:	48 89 c7             	mov    %rax,%rdi
    41a0:	e8 19 01 00 00       	callq  42be <std::thread::~thread()>
    41a5:	48 8d 45 c0          	lea    -0x40(%rbp),%rax
    41a9:	48 89 c7             	mov    %rax,%rdi
    41ac:	e8 0d 01 00 00       	callq  42be <std::thread::~thread()>
    41b1:	48 8d 45 b8          	lea    -0x48(%rbp),%rax
    41b5:	48 89 c7             	mov    %rax,%rdi
    41b8:	e8 01 01 00 00       	callq  42be <std::thread::~thread()>
    41bd:	48 8d 45 b0          	lea    -0x50(%rbp),%rax
    41c1:	48 89 c7             	mov    %rax,%rdi
    41c4:	e8 f5 00 00 00       	callq  42be <std::thread::~thread()>
    41c9:	48 8d 45 a8          	lea    -0x58(%rbp),%rax
    41cd:	48 89 c7             	mov    %rax,%rdi
    41d0:	e8 e9 00 00 00       	callq  42be <std::thread::~thread()>
    41d5:	48 8d 45 a0          	lea    -0x60(%rbp),%rax
    41d9:	48 89 c7             	mov    %rax,%rdi
    41dc:	e8 dd 00 00 00       	callq  42be <std::thread::~thread()>
    41e1:	90                   	nop
    41e2:	48 8b 45 e8          	mov    -0x18(%rbp),%rax
    41e6:	64 48 33 04 25 28 00 	xor    %fs:0x28,%rax
    41ed:	00 00 
    41ef:	0f 84 ac 00 00 00    	je     42a1 <ecall_thread_functions+0x2b0>
    41f5:	e9 a2 00 00 00       	jmpq   429c <ecall_thread_functions+0x2ab>
    41fa:	48 89 c3             	mov    %rax,%rbx
    41fd:	48 8d 45 e0          	lea    -0x20(%rbp),%rax
    4201:	48 89 c7             	mov    %rax,%rdi
    4204:	e8 b5 00 00 00       	callq  42be <std::thread::~thread()>
    4209:	eb 03                	jmp    420e <ecall_thread_functions+0x21d>
    420b:	48 89 c3             	mov    %rax,%rbx
    420e:	48 8d 45 d8          	lea    -0x28(%rbp),%rax
    4212:	48 89 c7             	mov    %rax,%rdi
    4215:	e8 a4 00 00 00       	callq  42be <std::thread::~thread()>
    421a:	eb 03                	jmp    421f <ecall_thread_functions+0x22e>
    421c:	48 89 c3             	mov    %rax,%rbx
    421f:	48 8d 45 d0          	lea    -0x30(%rbp),%rax
    4223:	48 89 c7             	mov    %rax,%rdi
    4226:	e8 93 00 00 00       	callq  42be <std::thread::~thread()>
    422b:	eb 03                	jmp    4230 <ecall_thread_functions+0x23f>
    422d:	48 89 c3             	mov    %rax,%rbx
    4230:	48 8d 45 c8          	lea    -0x38(%rbp),%rax
    4234:	48 89 c7             	mov    %rax,%rdi
    4237:	e8 82 00 00 00       	callq  42be <std::thread::~thread()>
    423c:	eb 03                	jmp    4241 <ecall_thread_functions+0x250>
    423e:	48 89 c3             	mov    %rax,%rbx
    4241:	48 8d 45 c0          	lea    -0x40(%rbp),%rax
    4245:	48 89 c7             	mov    %rax,%rdi
    4248:	e8 71 00 00 00       	callq  42be <std::thread::~thread()>
    424d:	eb 03                	jmp    4252 <ecall_thread_functions+0x261>
    424f:	48 89 c3             	mov    %rax,%rbx
    4252:	48 8d 45 b8          	lea    -0x48(%rbp),%rax
    4256:	48 89 c7             	mov    %rax,%rdi
    4259:	e8 60 00 00 00       	callq  42be <std::thread::~thread()>
    425e:	eb 03                	jmp    4263 <ecall_thread_functions+0x272>
    4260:	48 89 c3             	mov    %rax,%rbx
    4263:	48 8d 45 b0          	lea    -0x50(%rbp),%rax
    4267:	48 89 c7             	mov    %rax,%rdi
    426a:	e8 4f 00 00 00       	callq  42be <std::thread::~thread()>
    426f:	eb 03                	jmp    4274 <ecall_thread_functions+0x283>
    4271:	48 89 c3             	mov    %rax,%rbx
    4274:	48 8d 45 a8          	lea    -0x58(%rbp),%rax
    4278:	48 89 c7             	mov    %rax,%rdi
    427b:	e8 3e 00 00 00       	callq  42be <std::thread::~thread()>
    4280:	eb 03                	jmp    4285 <ecall_thread_functions+0x294>
    4282:	48 89 c3             	mov    %rax,%rbx
    4285:	48 8d 45 a0          	lea    -0x60(%rbp),%rax
    4289:	48 89 c7             	mov    %rax,%rdi
    428c:	e8 2d 00 00 00       	callq  42be <std::thread::~thread()>
    4291:	48 89 d8             	mov    %rbx,%rax
    4294:	48 89 c7             	mov    %rax,%rdi
    4297:	e8 f4 de ff ff       	callq  2190 <_Unwind_Resume@plt>
    429c:	e8 9f de ff ff       	callq  2140 <__stack_chk_fail@plt>
    42a1:	48 83 c4 58          	add    $0x58,%rsp
    42a5:	5b                   	pop    %rbx
    42a6:	5d                   	pop    %rbp
    42a7:	c3                   	retq   

00000000000042a8 <std::thread::id::id()>:
    42a8:	55                   	push   %rbp
    42a9:	48 89 e5             	mov    %rsp,%rbp
    42ac:	48 89 7d f8          	mov    %rdi,-0x8(%rbp)
    42b0:	48 8b 45 f8          	mov    -0x8(%rbp),%rax
    42b4:	48 c7 00 00 00 00 00 	movq   $0x0,(%rax)
    42bb:	90                   	nop
    42bc:	5d                   	pop    %rbp
    42bd:	c3                   	retq   

00000000000042be <std::thread::~thread()>:
    42be:	55                   	push   %rbp
    42bf:	48 89 e5             	mov    %rsp,%rbp
    42c2:	48 83 ec 10          	sub    $0x10,%rsp
    42c6:	48 89 7d f8          	mov    %rdi,-0x8(%rbp)
    42ca:	48 8b 45 f8          	mov    -0x8(%rbp),%rax
    42ce:	48 89 c7             	mov    %rax,%rdi
    42d1:	e8 0c 00 00 00       	callq  42e2 <std::thread::joinable() const>
    42d6:	84 c0                	test   %al,%al
    42d8:	74 05                	je     42df <std::thread::~thread()+0x21>
    42da:	e8 71 dd ff ff       	callq  2050 <std::terminate()@plt>
    42df:	90                   	nop
    42e0:	c9                   	leaveq 
    42e1:	c3                   	retq   

00000000000042e2 <std::thread::joinable() const>:
    42e2:	55                   	push   %rbp
    42e3:	48 89 e5             	mov    %rsp,%rbp
    42e6:	48 83 ec 20          	sub    $0x20,%rsp
    42ea:	48 89 7d e8          	mov    %rdi,-0x18(%rbp)
    42ee:	64 48 8b 04 25 28 00 	mov    %fs:0x28,%rax
    42f5:	00 00 
    42f7:	48 89 45 f8          	mov    %rax,-0x8(%rbp)
    42fb:	31 c0                	xor    %eax,%eax
    42fd:	48 8d 45 f0          	lea    -0x10(%rbp),%rax
    4301:	48 89 c7             	mov    %rax,%rdi
    4304:	e8 9f ff ff ff       	callq  42a8 <std::thread::id::id()>
    4309:	48 8b 55 f0          	mov    -0x10(%rbp),%rdx
    430d:	48 8b 45 e8          	mov    -0x18(%rbp),%rax
    4311:	48 89 d6             	mov    %rdx,%rsi
    4314:	48 8b 38             	mov    (%rax),%rdi
    4317:	e8 19 00 00 00       	callq  4335 <std::operator==(std::thread::id, std::thread::id)>
    431c:	83 f0 01             	xor    $0x1,%eax
    431f:	48 8b 4d f8          	mov    -0x8(%rbp),%rcx
    4323:	64 48 33 0c 25 28 00 	xor    %fs:0x28,%rcx
    432a:	00 00 
    432c:	74 05                	je     4333 <std::thread::joinable() const+0x51>
    432e:	e8 0d de ff ff       	callq  2140 <__stack_chk_fail@plt>
    4333:	c9                   	leaveq 
    4334:	c3                   	retq   

0000000000004335 <std::operator==(std::thread::id, std::thread::id)>:
    4335:	55                   	push   %rbp
    4336:	48 89 e5             	mov    %rsp,%rbp
    4339:	48 89 7d f8          	mov    %rdi,-0x8(%rbp)
    433d:	48 89 75 f0          	mov    %rsi,-0x10(%rbp)
    4341:	48 8b 55 f8          	mov    -0x8(%rbp),%rdx
    4345:	48 8b 45 f0          	mov    -0x10(%rbp),%rax
    4349:	48 39 c2             	cmp    %rax,%rdx
    434c:	0f 94 c0             	sete   %al
    434f:	5d                   	pop    %rbp
    4350:	c3                   	retq   

0000000000004351 <void (&std::forward<void (&)()>(std::remove_reference<void (&)()>::type&))()>:
    4351:	55                   	push   %rbp
    4352:	48 89 e5             	mov    %rsp,%rbp
    4355:	48 89 7d f8          	mov    %rdi,-0x8(%rbp)
    4359:	48 8b 45 f8          	mov    -0x8(%rbp),%rax
    435d:	5d                   	pop    %rbp
    435e:	c3                   	retq   

000000000000435f <void (*&&std::forward<void (*)()>(std::remove_reference<void (*)()>::type&))()>:
    435f:	55                   	push   %rbp
    4360:	48 89 e5             	mov    %rsp,%rbp
    4363:	48 89 7d f8          	mov    %rdi,-0x8(%rbp)
    4367:	48 8b 45 f8          	mov    -0x8(%rbp),%rax
    436b:	5d                   	pop    %rbp
    436c:	c3                   	retq   

000000000000436d <std::__invoke_result<void (*)()>::type std::__invoke<void (*)()>(void (*&&)())>:
    436d:	55                   	push   %rbp
    436e:	48 89 e5             	mov    %rsp,%rbp
    4371:	53                   	push   %rbx
    4372:	48 83 ec 28          	sub    $0x28,%rsp
    4376:	48 89 7d d8          	mov    %rdi,-0x28(%rbp)
    437a:	64 48 8b 04 25 28 00 	mov    %fs:0x28,%rax
    4381:	00 00 
    4383:	48 89 45 e8          	mov    %rax,-0x18(%rbp)
    4387:	31 c0                	xor    %eax,%eax
    4389:	48 8b 45 d8          	mov    -0x28(%rbp),%rax
    438d:	48 89 c7             	mov    %rax,%rdi
    4390:	e8 ca ff ff ff       	callq  435f <void (*&&std::forward<void (*)()>(std::remove_reference<void (*)()>::type&))()>
    4395:	48 83 ec 08          	sub    $0x8,%rsp
    4399:	53                   	push   %rbx
    439a:	48 89 c7             	mov    %rax,%rdi
    439d:	e8 d6 01 00 00       	callq  4578 <void std::__invoke_impl<void, void (*)()>(std::__invoke_other, void (*&&)())>
    43a2:	48 83 c4 10          	add    $0x10,%rsp
    43a6:	90                   	nop
    43a7:	48 8b 45 e8          	mov    -0x18(%rbp),%rax
    43ab:	64 48 33 04 25 28 00 	xor    %fs:0x28,%rax
    43b2:	00 00 
    43b4:	74 05                	je     43bb <std::__invoke_result<void (*)()>::type std::__invoke<void (*)()>(void (*&&)())+0x4e>
    43b6:	e8 85 dd ff ff       	callq  2140 <__stack_chk_fail@plt>
    43bb:	48 8b 5d f8          	mov    -0x8(%rbp),%rbx
    43bf:	c9                   	leaveq 
    43c0:	c3                   	retq   
    43c1:	90                   	nop

00000000000043c2 <std::thread::thread<void (&)()>(void (&)())>:
    43c2:	55                   	push   %rbp
    43c3:	48 89 e5             	mov    %rsp,%rbp
    43c6:	53                   	push   %rbx
    43c7:	48 83 ec 38          	sub    $0x38,%rsp
    43cb:	48 89 7d c8          	mov    %rdi,-0x38(%rbp)
    43cf:	48 89 75 c0          	mov    %rsi,-0x40(%rbp)
    43d3:	64 48 8b 04 25 28 00 	mov    %fs:0x28,%rax
    43da:	00 00 
    43dc:	48 89 45 e8          	mov    %rax,-0x18(%rbp)
    43e0:	31 c0                	xor    %eax,%eax
    43e2:	48 8b 45 c8          	mov    -0x38(%rbp),%rax
    43e6:	48 89 c7             	mov    %rax,%rdi
    43e9:	e8 ba fe ff ff       	callq  42a8 <std::thread::id::id()>
    43ee:	48 8b 05 c3 3b 00 00 	mov    0x3bc3(%rip),%rax        # 7fb8 <pthread_create@GLIBC_2.2.5>
    43f5:	48 89 45 e0          	mov    %rax,-0x20(%rbp)
    43f9:	48 8b 45 c0          	mov    -0x40(%rbp),%rax
    43fd:	48 89 c7             	mov    %rax,%rdi
    4400:	e8 4c ff ff ff       	callq  4351 <void (&std::forward<void (&)()>(std::remove_reference<void (&)()>::type&))()>
    4405:	48 89 c2             	mov    %rax,%rdx
    4408:	48 8d 45 d8          	lea    -0x28(%rbp),%rax
    440c:	48 89 d6             	mov    %rdx,%rsi
    440f:	48 89 c7             	mov    %rax,%rdi
    4412:	e8 ff 00 00 00       	callq  4516 <std::thread::_Invoker<std::tuple<std::decay<void (&)()>::type> > std::thread::__make_invoker<void (&)()>(void (&)())>
    4417:	48 8d 45 d0          	lea    -0x30(%rbp),%rax
    441b:	48 8d 55 d8          	lea    -0x28(%rbp),%rdx
    441f:	48 89 d6             	mov    %rdx,%rsi
    4422:	48 89 c7             	mov    %rax,%rdi
    4425:	e8 7c 01 00 00       	callq  45a6 <std::unique_ptr<std::thread::_State, std::default_delete<std::thread::_State> > std::thread::_S_make_state<std::thread::_Invoker<std::tuple<void (*)()> > >(std::thread::_Invoker<std::tuple<void (*)()> >&&)>
    442a:	48 8b 55 e0          	mov    -0x20(%rbp),%rdx
    442e:	48 8d 4d d0          	lea    -0x30(%rbp),%rcx
    4432:	48 8b 45 c8          	mov    -0x38(%rbp),%rax
    4436:	48 89 ce             	mov    %rcx,%rsi
    4439:	48 89 c7             	mov    %rax,%rdi
    443c:	e8 bf dc ff ff       	callq  2100 <std::thread::_M_start_thread(std::unique_ptr<std::thread::_State, std::default_delete<std::thread::_State> >, void (*)())@plt>
    4441:	48 8d 45 d0          	lea    -0x30(%rbp),%rax
    4445:	48 89 c7             	mov    %rax,%rdi
    4448:	e8 af 01 00 00       	callq  45fc <std::unique_ptr<std::thread::_State, std::default_delete<std::thread::_State> >::~unique_ptr()>
    444d:	90                   	nop
    444e:	48 8b 45 e8          	mov    -0x18(%rbp),%rax
    4452:	64 48 33 04 25 28 00 	xor    %fs:0x28,%rax
    4459:	00 00 
    445b:	74 21                	je     447e <std::thread::thread<void (&)()>(void (&)())+0xbc>
    445d:	eb 1a                	jmp    4479 <std::thread::thread<void (&)()>(void (&)())+0xb7>
    445f:	48 89 c3             	mov    %rax,%rbx
    4462:	48 8d 45 d0          	lea    -0x30(%rbp),%rax
    4466:	48 89 c7             	mov    %rax,%rdi
    4469:	e8 8e 01 00 00       	callq  45fc <std::unique_ptr<std::thread::_State, std::default_delete<std::thread::_State> >::~unique_ptr()>
    446e:	48 89 d8             	mov    %rbx,%rax
    4471:	48 89 c7             	mov    %rax,%rdi
    4474:	e8 17 dd ff ff       	callq  2190 <_Unwind_Resume@plt>
    4479:	e8 c2 dc ff ff       	callq  2140 <__stack_chk_fail@plt>
    447e:	48 83 c4 38          	add    $0x38,%rsp
    4482:	5b                   	pop    %rbx
    4483:	5d                   	pop    %rbp
    4484:	c3                   	retq   
    4485:	90                   	nop

0000000000004486 <std::tuple<void (*)()>::tuple<void, true>(void (* const&)())>:
    4486:	55                   	push   %rbp
    4487:	48 89 e5             	mov    %rsp,%rbp
    448a:	48 83 ec 10          	sub    $0x10,%rsp
    448e:	48 89 7d f8          	mov    %rdi,-0x8(%rbp)
    4492:	48 89 75 f0          	mov    %rsi,-0x10(%rbp)
    4496:	48 8b 45 f8          	mov    -0x8(%rbp),%rax
    449a:	48 8b 55 f0          	mov    -0x10(%rbp),%rdx
    449e:	48 89 d6             	mov    %rdx,%rsi
    44a1:	48 89 c7             	mov    %rax,%rdi
    44a4:	e8 03 00 00 00       	callq  44ac <std::_Tuple_impl<0ul, void (*)()>::_Tuple_impl(void (* const&)())>
    44a9:	90                   	nop
    44aa:	c9                   	leaveq 
    44ab:	c3                   	retq   

00000000000044ac <std::_Tuple_impl<0ul, void (*)()>::_Tuple_impl(void (* const&)())>:
    44ac:	55                   	push   %rbp
    44ad:	48 89 e5             	mov    %rsp,%rbp
    44b0:	48 83 ec 10          	sub    $0x10,%rsp
    44b4:	48 89 7d f8          	mov    %rdi,-0x8(%rbp)
    44b8:	48 89 75 f0          	mov    %rsi,-0x10(%rbp)
    44bc:	48 8b 45 f8          	mov    -0x8(%rbp),%rax
    44c0:	48 8b 55 f0          	mov    -0x10(%rbp),%rdx
    44c4:	48 89 d6             	mov    %rdx,%rsi
    44c7:	48 89 c7             	mov    %rax,%rdi
    44ca:	e8 03 00 00 00       	callq  44d2 <std::_Head_base<0ul, void (*)(), false>::_Head_base(void (* const&)())>
    44cf:	90                   	nop
    44d0:	c9                   	leaveq 
    44d1:	c3                   	retq   

00000000000044d2 <std::_Head_base<0ul, void (*)(), false>::_Head_base(void (* const&)())>:
    44d2:	55                   	push   %rbp
    44d3:	48 89 e5             	mov    %rsp,%rbp
    44d6:	48 89 7d f8          	mov    %rdi,-0x8(%rbp)
    44da:	48 89 75 f0          	mov    %rsi,-0x10(%rbp)
    44de:	48 8b 45 f0          	mov    -0x10(%rbp),%rax
    44e2:	48 8b 10             	mov    (%rax),%rdx
    44e5:	48 8b 45 f8          	mov    -0x8(%rbp),%rax
    44e9:	48 89 10             	mov    %rdx,(%rax)
    44ec:	90                   	nop
    44ed:	5d                   	pop    %rbp
    44ee:	c3                   	retq   
    44ef:	90                   	nop

00000000000044f0 <std::tuple<void (*)()>::tuple(std::tuple<void (*)()>&&)>:
    44f0:	55                   	push   %rbp
    44f1:	48 89 e5             	mov    %rsp,%rbp
    44f4:	48 83 ec 10          	sub    $0x10,%rsp
    44f8:	48 89 7d f8          	mov    %rdi,-0x8(%rbp)
    44fc:	48 89 75 f0          	mov    %rsi,-0x10(%rbp)
    4500:	48 8b 45 f8          	mov    -0x8(%rbp),%rax
    4504:	48 8b 55 f0          	mov    -0x10(%rbp),%rdx
    4508:	48 89 d6             	mov    %rdx,%rsi
    450b:	48 89 c7             	mov    %rax,%rdi
    450e:	e8 69 01 00 00       	callq  467c <std::_Tuple_impl<0ul, void (*)()>::_Tuple_impl(std::_Tuple_impl<0ul, void (*)()>&&)>
    4513:	90                   	nop
    4514:	c9                   	leaveq 
    4515:	c3                   	retq   

0000000000004516 <std::thread::_Invoker<std::tuple<std::decay<void (&)()>::type> > std::thread::__make_invoker<void (&)()>(void (&)())>:
    4516:	55                   	push   %rbp
    4517:	48 89 e5             	mov    %rsp,%rbp
    451a:	53                   	push   %rbx
    451b:	48 83 ec 28          	sub    $0x28,%rsp
    451f:	48 89 7d d8          	mov    %rdi,-0x28(%rbp)
    4523:	48 89 75 d0          	mov    %rsi,-0x30(%rbp)
    4527:	64 48 8b 04 25 28 00 	mov    %fs:0x28,%rax
    452e:	00 00 
    4530:	48 89 45 e8          	mov    %rax,-0x18(%rbp)
    4534:	31 c0                	xor    %eax,%eax
    4536:	48 8b 5d d8          	mov    -0x28(%rbp),%rbx
    453a:	48 8b 45 d0          	mov    -0x30(%rbp),%rax
    453e:	48 89 c7             	mov    %rax,%rdi
    4541:	e8 0b fe ff ff       	callq  4351 <void (&std::forward<void (&)()>(std::remove_reference<void (&)()>::type&))()>
    4546:	48 89 45 e0          	mov    %rax,-0x20(%rbp)
    454a:	48 8d 45 e0          	lea    -0x20(%rbp),%rax
    454e:	48 89 c6             	mov    %rax,%rsi
    4551:	48 89 df             	mov    %rbx,%rdi
    4554:	e8 2d ff ff ff       	callq  4486 <std::tuple<void (*)()>::tuple<void, true>(void (* const&)())>
    4559:	48 8b 45 d8          	mov    -0x28(%rbp),%rax
    455d:	48 8b 55 e8          	mov    -0x18(%rbp),%rdx
    4561:	64 48 33 14 25 28 00 	xor    %fs:0x28,%rdx
    4568:	00 00 
    456a:	74 05                	je     4571 <std::thread::_Invoker<std::tuple<std::decay<void (&)()>::type> > std::thread::__make_invoker<void (&)()>(void (&)())+0x5b>
    456c:	e8 cf db ff ff       	callq  2140 <__stack_chk_fail@plt>
    4571:	48 83 c4 28          	add    $0x28,%rsp
    4575:	5b                   	pop    %rbx
    4576:	5d                   	pop    %rbp
    4577:	c3                   	retq   

0000000000004578 <void std::__invoke_impl<void, void (*)()>(std::__invoke_other, void (*&&)())>:
    4578:	55                   	push   %rbp
    4579:	48 89 e5             	mov    %rsp,%rbp
    457c:	48 83 ec 10          	sub    $0x10,%rsp
    4580:	48 89 7d f8          	mov    %rdi,-0x8(%rbp)
    4584:	48 8b 45 f8          	mov    -0x8(%rbp),%rax
    4588:	48 89 c7             	mov    %rax,%rdi
    458b:	e8 cf fd ff ff       	callq  435f <void (*&&std::forward<void (*)()>(std::remove_reference<void (*)()>::type&))()>
    4590:	48 8b 00             	mov    (%rax),%rax
    4593:	ff d0                	callq  *%rax
    4595:	90                   	nop
    4596:	c9                   	leaveq 
    4597:	c3                   	retq   

0000000000004598 <std::thread::_Invoker<std::tuple<void (*)()> >&& std::forward<std::thread::_Invoker<std::tuple<void (*)()> > >(std::remove_reference<std::thread::_Invoker<std::tuple<void (*)()> > >::type&)>:
    4598:	55                   	push   %rbp
    4599:	48 89 e5             	mov    %rsp,%rbp
    459c:	48 89 7d f8          	mov    %rdi,-0x8(%rbp)
    45a0:	48 8b 45 f8          	mov    -0x8(%rbp),%rax
    45a4:	5d                   	pop    %rbp
    45a5:	c3                   	retq   

00000000000045a6 <std::unique_ptr<std::thread::_State, std::default_delete<std::thread::_State> > std::thread::_S_make_state<std::thread::_Invoker<std::tuple<void (*)()> > >(std::thread::_Invoker<std::tuple<void (*)()> >&&)>:
    45a6:	55                   	push   %rbp
    45a7:	48 89 e5             	mov    %rsp,%rbp
    45aa:	41 54                	push   %r12
    45ac:	53                   	push   %rbx
    45ad:	48 83 ec 10          	sub    $0x10,%rsp
    45b1:	48 89 7d e8          	mov    %rdi,-0x18(%rbp)
    45b5:	48 89 75 e0          	mov    %rsi,-0x20(%rbp)
    45b9:	48 8b 45 e0          	mov    -0x20(%rbp),%rax
    45bd:	48 89 c7             	mov    %rax,%rdi
    45c0:	e8 d3 ff ff ff       	callq  4598 <std::thread::_Invoker<std::tuple<void (*)()> >&& std::forward<std::thread::_Invoker<std::tuple<void (*)()> > >(std::remove_reference<std::thread::_Invoker<std::tuple<void (*)()> > >::type&)>
    45c5:	49 89 c4             	mov    %rax,%r12
    45c8:	bf 10 00 00 00       	mov    $0x10,%edi
    45cd:	e8 4e db ff ff       	callq  2120 <operator new(unsigned long)@plt>
    45d2:	48 89 c3             	mov    %rax,%rbx
    45d5:	4c 89 e6             	mov    %r12,%rsi
    45d8:	48 89 df             	mov    %rbx,%rdi
    45db:	e8 1c 01 00 00       	callq  46fc <std::thread::_State_impl<std::thread::_Invoker<std::tuple<void (*)()> > >::_State_impl(std::thread::_Invoker<std::tuple<void (*)()> >&&)>
    45e0:	48 8b 45 e8          	mov    -0x18(%rbp),%rax
    45e4:	48 89 de             	mov    %rbx,%rsi
    45e7:	48 89 c7             	mov    %rax,%rdi
    45ea:	e8 63 01 00 00       	callq  4752 <std::unique_ptr<std::thread::_State, std::default_delete<std::thread::_State> >::unique_ptr<std::default_delete<std::thread::_State>, void>(std::thread::_State*)>
    45ef:	48 8b 45 e8          	mov    -0x18(%rbp),%rax
    45f3:	48 83 c4 10          	add    $0x10,%rsp
    45f7:	5b                   	pop    %rbx
    45f8:	41 5c                	pop    %r12
    45fa:	5d                   	pop    %rbp
    45fb:	c3                   	retq   

00000000000045fc <std::unique_ptr<std::thread::_State, std::default_delete<std::thread::_State> >::~unique_ptr()>:
    45fc:	55                   	push   %rbp
    45fd:	48 89 e5             	mov    %rsp,%rbp
    4600:	48 83 ec 20          	sub    $0x20,%rsp
    4604:	48 89 7d e8          	mov    %rdi,-0x18(%rbp)
    4608:	48 8b 45 e8          	mov    -0x18(%rbp),%rax
    460c:	48 89 c7             	mov    %rax,%rdi
    460f:	e8 64 01 00 00       	callq  4778 <std::__uniq_ptr_impl<std::thread::_State, std::default_delete<std::thread::_State> >::_M_ptr()>
    4614:	48 89 45 f8          	mov    %rax,-0x8(%rbp)
    4618:	48 8b 45 f8          	mov    -0x8(%rbp),%rax
    461c:	48 8b 00             	mov    (%rax),%rax
    461f:	48 85 c0             	test   %rax,%rax
    4622:	74 21                	je     4645 <std::unique_ptr<std::thread::_State, std::default_delete<std::thread::_State> >::~unique_ptr()+0x49>
    4624:	48 8b 45 e8          	mov    -0x18(%rbp),%rax
    4628:	48 89 c7             	mov    %rax,%rdi
    462b:	e8 62 01 00 00       	callq  4792 <std::unique_ptr<std::thread::_State, std::default_delete<std::thread::_State> >::get_deleter()>
    4630:	48 89 c2             	mov    %rax,%rdx
    4633:	48 8b 45 f8          	mov    -0x8(%rbp),%rax
    4637:	48 8b 00             	mov    (%rax),%rax
    463a:	48 89 c6             	mov    %rax,%rsi
    463d:	48 89 d7             	mov    %rdx,%rdi
    4640:	e8 67 01 00 00       	callq  47ac <std::default_delete<std::thread::_State>::operator()(std::thread::_State*) const>
    4645:	48 8b 45 f8          	mov    -0x8(%rbp),%rax
    4649:	48 c7 00 00 00 00 00 	movq   $0x0,(%rax)
    4650:	90                   	nop
    4651:	c9                   	leaveq 
    4652:	c3                   	retq   

0000000000004653 <std::_Tuple_impl<0ul, void (*)()>::_M_head(std::_Tuple_impl<0ul, void (*)()>&)>:
    4653:	55                   	push   %rbp
    4654:	48 89 e5             	mov    %rsp,%rbp
    4657:	48 83 ec 10          	sub    $0x10,%rsp
    465b:	48 89 7d f8          	mov    %rdi,-0x8(%rbp)
    465f:	48 8b 45 f8          	mov    -0x8(%rbp),%rax
    4663:	48 89 c7             	mov    %rax,%rdi
    4666:	e8 02 00 00 00       	callq  466d <std::_Head_base<0ul, void (*)(), false>::_M_head(std::_Head_base<0ul, void (*)(), false>&)>
    466b:	c9                   	leaveq 
    466c:	c3                   	retq   

000000000000466d <std::_Head_base<0ul, void (*)(), false>::_M_head(std::_Head_base<0ul, void (*)(), false>&)>:
    466d:	55                   	push   %rbp
    466e:	48 89 e5             	mov    %rsp,%rbp
    4671:	48 89 7d f8          	mov    %rdi,-0x8(%rbp)
    4675:	48 8b 45 f8          	mov    -0x8(%rbp),%rax
    4679:	5d                   	pop    %rbp
    467a:	c3                   	retq   
    467b:	90                   	nop

000000000000467c <std::_Tuple_impl<0ul, void (*)()>::_Tuple_impl(std::_Tuple_impl<0ul, void (*)()>&&)>:
    467c:	55                   	push   %rbp
    467d:	48 89 e5             	mov    %rsp,%rbp
    4680:	53                   	push   %rbx
    4681:	48 83 ec 18          	sub    $0x18,%rsp
    4685:	48 89 7d e8          	mov    %rdi,-0x18(%rbp)
    4689:	48 89 75 e0          	mov    %rsi,-0x20(%rbp)
    468d:	48 8b 5d e8          	mov    -0x18(%rbp),%rbx
    4691:	48 8b 45 e0          	mov    -0x20(%rbp),%rax
    4695:	48 89 c7             	mov    %rax,%rdi
    4698:	e8 b6 ff ff ff       	callq  4653 <std::_Tuple_impl<0ul, void (*)()>::_M_head(std::_Tuple_impl<0ul, void (*)()>&)>
    469d:	48 89 c7             	mov    %rax,%rdi
    46a0:	e8 ba fc ff ff       	callq  435f <void (*&&std::forward<void (*)()>(std::remove_reference<void (*)()>::type&))()>
    46a5:	48 89 c6             	mov    %rax,%rsi
    46a8:	48 89 df             	mov    %rbx,%rdi
    46ab:	e8 2e 01 00 00       	callq  47de <std::_Head_base<0ul, void (*)(), false>::_Head_base<void (*)()>(void (*&&)())>
    46b0:	90                   	nop
    46b1:	48 83 c4 18          	add    $0x18,%rsp
    46b5:	5b                   	pop    %rbx
    46b6:	5d                   	pop    %rbp
    46b7:	c3                   	retq   

00000000000046b8 <std::thread::_State::_State()>:
    46b8:	55                   	push   %rbp
    46b9:	48 89 e5             	mov    %rsp,%rbp
    46bc:	48 89 7d f8          	mov    %rdi,-0x8(%rbp)
    46c0:	48 8b 05 f9 38 00 00 	mov    0x38f9(%rip),%rax        # 7fc0 <vtable for std::thread::_State@GLIBCXX_3.4.22>
    46c7:	48 8d 50 10          	lea    0x10(%rax),%rdx
    46cb:	48 8b 45 f8          	mov    -0x8(%rbp),%rax
    46cf:	48 89 10             	mov    %rdx,(%rax)
    46d2:	90                   	nop
    46d3:	5d                   	pop    %rbp
    46d4:	c3                   	retq   
    46d5:	90                   	nop

00000000000046d6 <std::thread::_Invoker<std::tuple<void (*)()> >::_Invoker(std::thread::_Invoker<std::tuple<void (*)()> >&&)>:
    46d6:	55                   	push   %rbp
    46d7:	48 89 e5             	mov    %rsp,%rbp
    46da:	48 83 ec 10          	sub    $0x10,%rsp
    46de:	48 89 7d f8          	mov    %rdi,-0x8(%rbp)
    46e2:	48 89 75 f0          	mov    %rsi,-0x10(%rbp)
    46e6:	48 8b 45 f8          	mov    -0x8(%rbp),%rax
    46ea:	48 8b 55 f0          	mov    -0x10(%rbp),%rdx
    46ee:	48 89 d6             	mov    %rdx,%rsi
    46f1:	48 89 c7             	mov    %rax,%rdi
    46f4:	e8 f7 fd ff ff       	callq  44f0 <std::tuple<void (*)()>::tuple(std::tuple<void (*)()>&&)>
    46f9:	90                   	nop
    46fa:	c9                   	leaveq 
    46fb:	c3                   	retq   

00000000000046fc <std::thread::_State_impl<std::thread::_Invoker<std::tuple<void (*)()> > >::_State_impl(std::thread::_Invoker<std::tuple<void (*)()> >&&)>:
    46fc:	55                   	push   %rbp
    46fd:	48 89 e5             	mov    %rsp,%rbp
    4700:	53                   	push   %rbx
    4701:	48 83 ec 18          	sub    $0x18,%rsp
    4705:	48 89 7d e8          	mov    %rdi,-0x18(%rbp)
    4709:	48 89 75 e0          	mov    %rsi,-0x20(%rbp)
    470d:	48 8b 45 e8          	mov    -0x18(%rbp),%rax
    4711:	48 89 c7             	mov    %rax,%rdi
    4714:	e8 9f ff ff ff       	callq  46b8 <std::thread::_State::_State()>
    4719:	48 8d 05 40 35 00 00 	lea    0x3540(%rip),%rax        # 7c60 <vtable for std::thread::_State_impl<std::thread::_Invoker<std::tuple<void (*)()> > >>
    4720:	48 8d 50 10          	lea    0x10(%rax),%rdx
    4724:	48 8b 45 e8          	mov    -0x18(%rbp),%rax
    4728:	48 89 10             	mov    %rdx,(%rax)
    472b:	48 8b 45 e8          	mov    -0x18(%rbp),%rax
    472f:	48 8d 58 08          	lea    0x8(%rax),%rbx
    4733:	48 8b 45 e0          	mov    -0x20(%rbp),%rax
    4737:	48 89 c7             	mov    %rax,%rdi
    473a:	e8 59 fe ff ff       	callq  4598 <std::thread::_Invoker<std::tuple<void (*)()> >&& std::forward<std::thread::_Invoker<std::tuple<void (*)()> > >(std::remove_reference<std::thread::_Invoker<std::tuple<void (*)()> > >::type&)>
    473f:	48 89 c6             	mov    %rax,%rsi
    4742:	48 89 df             	mov    %rbx,%rdi
    4745:	e8 8c ff ff ff       	callq  46d6 <std::thread::_Invoker<std::tuple<void (*)()> >::_Invoker(std::thread::_Invoker<std::tuple<void (*)()> >&&)>
    474a:	90                   	nop
    474b:	48 83 c4 18          	add    $0x18,%rsp
    474f:	5b                   	pop    %rbx
    4750:	5d                   	pop    %rbp
    4751:	c3                   	retq   

0000000000004752 <std::unique_ptr<std::thread::_State, std::default_delete<std::thread::_State> >::unique_ptr<std::default_delete<std::thread::_State>, void>(std::thread::_State*)>:
    4752:	55                   	push   %rbp
    4753:	48 89 e5             	mov    %rsp,%rbp
    4756:	48 83 ec 10          	sub    $0x10,%rsp
    475a:	48 89 7d f8          	mov    %rdi,-0x8(%rbp)
    475e:	48 89 75 f0          	mov    %rsi,-0x10(%rbp)
    4762:	48 8b 45 f8          	mov    -0x8(%rbp),%rax
    4766:	48 8b 55 f0          	mov    -0x10(%rbp),%rdx
    476a:	48 89 d6             	mov    %rdx,%rsi
    476d:	48 89 c7             	mov    %rax,%rdi
    4770:	e8 93 00 00 00       	callq  4808 <std::__uniq_ptr_impl<std::thread::_State, std::default_delete<std::thread::_State> >::__uniq_ptr_impl(std::thread::_State*)>
    4775:	90                   	nop
    4776:	c9                   	leaveq 
    4777:	c3                   	retq   

0000000000004778 <std::__uniq_ptr_impl<std::thread::_State, std::default_delete<std::thread::_State> >::_M_ptr()>:
    4778:	55                   	push   %rbp
    4779:	48 89 e5             	mov    %rsp,%rbp
    477c:	48 83 ec 10          	sub    $0x10,%rsp
    4780:	48 89 7d f8          	mov    %rdi,-0x8(%rbp)
    4784:	48 8b 45 f8          	mov    -0x8(%rbp),%rax
    4788:	48 89 c7             	mov    %rax,%rdi
    478b:	e8 ad 00 00 00       	callq  483d <std::tuple_element<0ul, std::tuple<std::thread::_State*, std::default_delete<std::thread::_State> > >::type& std::get<0ul, std::thread::_State*, std::default_delete<std::thread::_State> >(std::tuple<std::thread::_State*, std::default_delete<std::thread::_State> >&)>
    4790:	c9                   	leaveq 
    4791:	c3                   	retq   

0000000000004792 <std::unique_ptr<std::thread::_State, std::default_delete<std::thread::_State> >::get_deleter()>:
    4792:	55                   	push   %rbp
    4793:	48 89 e5             	mov    %rsp,%rbp
    4796:	48 83 ec 10          	sub    $0x10,%rsp
    479a:	48 89 7d f8          	mov    %rdi,-0x8(%rbp)
    479e:	48 8b 45 f8          	mov    -0x8(%rbp),%rax
    47a2:	48 89 c7             	mov    %rax,%rdi
    47a5:	e8 ae 00 00 00       	callq  4858 <std::__uniq_ptr_impl<std::thread::_State, std::default_delete<std::thread::_State> >::_M_deleter()>
    47aa:	c9                   	leaveq 
    47ab:	c3                   	retq   

00000000000047ac <std::default_delete<std::thread::_State>::operator()(std::thread::_State*) const>:
    47ac:	55                   	push   %rbp
    47ad:	48 89 e5             	mov    %rsp,%rbp
    47b0:	48 83 ec 10          	sub    $0x10,%rsp
    47b4:	48 89 7d f8          	mov    %rdi,-0x8(%rbp)
    47b8:	48 89 75 f0          	mov    %rsi,-0x10(%rbp)
    47bc:	48 83 7d f0 00       	cmpq   $0x0,-0x10(%rbp)
    47c1:	74 17                	je     47da <std::default_delete<std::thread::_State>::operator()(std::thread::_State*) const+0x2e>
    47c3:	48 8b 45 f0          	mov    -0x10(%rbp),%rax
    47c7:	48 8b 00             	mov    (%rax),%rax
    47ca:	48 83 c0 08          	add    $0x8,%rax
    47ce:	48 8b 00             	mov    (%rax),%rax
    47d1:	48 8b 55 f0          	mov    -0x10(%rbp),%rdx
    47d5:	48 89 d7             	mov    %rdx,%rdi
    47d8:	ff d0                	callq  *%rax
    47da:	90                   	nop
    47db:	c9                   	leaveq 
    47dc:	c3                   	retq   
    47dd:	90                   	nop

00000000000047de <std::_Head_base<0ul, void (*)(), false>::_Head_base<void (*)()>(void (*&&)())>:
    47de:	55                   	push   %rbp
    47df:	48 89 e5             	mov    %rsp,%rbp
    47e2:	48 83 ec 10          	sub    $0x10,%rsp
    47e6:	48 89 7d f8          	mov    %rdi,-0x8(%rbp)
    47ea:	48 89 75 f0          	mov    %rsi,-0x10(%rbp)
    47ee:	48 8b 45 f0          	mov    -0x10(%rbp),%rax
    47f2:	48 89 c7             	mov    %rax,%rdi
    47f5:	e8 65 fb ff ff       	callq  435f <void (*&&std::forward<void (*)()>(std::remove_reference<void (*)()>::type&))()>
    47fa:	48 8b 10             	mov    (%rax),%rdx
    47fd:	48 8b 45 f8          	mov    -0x8(%rbp),%rax
    4801:	48 89 10             	mov    %rdx,(%rax)
    4804:	90                   	nop
    4805:	c9                   	leaveq 
    4806:	c3                   	retq   
    4807:	90                   	nop

0000000000004808 <std::__uniq_ptr_impl<std::thread::_State, std::default_delete<std::thread::_State> >::__uniq_ptr_impl(std::thread::_State*)>:
    4808:	55                   	push   %rbp
    4809:	48 89 e5             	mov    %rsp,%rbp
    480c:	48 83 ec 10          	sub    $0x10,%rsp
    4810:	48 89 7d f8          	mov    %rdi,-0x8(%rbp)
    4814:	48 89 75 f0          	mov    %rsi,-0x10(%rbp)
    4818:	48 8b 45 f8          	mov    -0x8(%rbp),%rax
    481c:	48 89 c7             	mov    %rax,%rdi
    481f:	e8 4e 00 00 00       	callq  4872 <std::tuple<std::thread::_State*, std::default_delete<std::thread::_State> >::tuple<std::thread::_State*, std::default_delete<std::thread::_State>, true>()>
    4824:	48 8b 45 f8          	mov    -0x8(%rbp),%rax
    4828:	48 89 c7             	mov    %rax,%rdi
    482b:	e8 48 ff ff ff       	callq  4778 <std::__uniq_ptr_impl<std::thread::_State, std::default_delete<std::thread::_State> >::_M_ptr()>
    4830:	48 89 c2             	mov    %rax,%rdx
    4833:	48 8b 45 f0          	mov    -0x10(%rbp),%rax
    4837:	48 89 02             	mov    %rax,(%rdx)
    483a:	90                   	nop
    483b:	c9                   	leaveq 
    483c:	c3                   	retq   

000000000000483d <std::tuple_element<0ul, std::tuple<std::thread::_State*, std::default_delete<std::thread::_State> > >::type& std::get<0ul, std::thread::_State*, std::default_delete<std::thread::_State> >(std::tuple<std::thread::_State*, std::default_delete<std::thread::_State> >&)>:
    483d:	55                   	push   %rbp
    483e:	48 89 e5             	mov    %rsp,%rbp
    4841:	48 83 ec 10          	sub    $0x10,%rsp
    4845:	48 89 7d f8          	mov    %rdi,-0x8(%rbp)
    4849:	48 8b 45 f8          	mov    -0x8(%rbp),%rax
    484d:	48 89 c7             	mov    %rax,%rdi
    4850:	e8 38 00 00 00       	callq  488d <std::thread::_State*& std::__get_helper<0ul, std::thread::_State*, std::default_delete<std::thread::_State> >(std::_Tuple_impl<0ul, std::thread::_State*, std::default_delete<std::thread::_State> >&)>
    4855:	c9                   	leaveq 
    4856:	c3                   	retq   
    4857:	90                   	nop

0000000000004858 <std::__uniq_ptr_impl<std::thread::_State, std::default_delete<std::thread::_State> >::_M_deleter()>:
    4858:	55                   	push   %rbp
    4859:	48 89 e5             	mov    %rsp,%rbp
    485c:	48 83 ec 10          	sub    $0x10,%rsp
    4860:	48 89 7d f8          	mov    %rdi,-0x8(%rbp)
    4864:	48 8b 45 f8          	mov    -0x8(%rbp),%rax
    4868:	48 89 c7             	mov    %rax,%rdi
    486b:	e8 37 00 00 00       	callq  48a7 <std::tuple_element<1ul, std::tuple<std::thread::_State*, std::default_delete<std::thread::_State> > >::type& std::get<1ul, std::thread::_State*, std::default_delete<std::thread::_State> >(std::tuple<std::thread::_State*, std::default_delete<std::thread::_State> >&)>
    4870:	c9                   	leaveq 
    4871:	c3                   	retq   

0000000000004872 <std::tuple<std::thread::_State*, std::default_delete<std::thread::_State> >::tuple<std::thread::_State*, std::default_delete<std::thread::_State>, true>()>:
    4872:	55                   	push   %rbp
    4873:	48 89 e5             	mov    %rsp,%rbp
    4876:	48 83 ec 10          	sub    $0x10,%rsp
    487a:	48 89 7d f8          	mov    %rdi,-0x8(%rbp)
    487e:	48 8b 45 f8          	mov    -0x8(%rbp),%rax
    4882:	48 89 c7             	mov    %rax,%rdi
    4885:	e8 38 00 00 00       	callq  48c2 <std::_Tuple_impl<0ul, std::thread::_State*, std::default_delete<std::thread::_State> >::_Tuple_impl()>
    488a:	90                   	nop
    488b:	c9                   	leaveq 
    488c:	c3                   	retq   

000000000000488d <std::thread::_State*& std::__get_helper<0ul, std::thread::_State*, std::default_delete<std::thread::_State> >(std::_Tuple_impl<0ul, std::thread::_State*, std::default_delete<std::thread::_State> >&)>:
    488d:	55                   	push   %rbp
    488e:	48 89 e5             	mov    %rsp,%rbp
    4891:	48 83 ec 10          	sub    $0x10,%rsp
    4895:	48 89 7d f8          	mov    %rdi,-0x8(%rbp)
    4899:	48 8b 45 f8          	mov    -0x8(%rbp),%rax
    489d:	48 89 c7             	mov    %rax,%rdi
    48a0:	e8 44 00 00 00       	callq  48e9 <std::_Tuple_impl<0ul, std::thread::_State*, std::default_delete<std::thread::_State> >::_M_head(std::_Tuple_impl<0ul, std::thread::_State*, std::default_delete<std::thread::_State> >&)>
    48a5:	c9                   	leaveq 
    48a6:	c3                   	retq   

00000000000048a7 <std::tuple_element<1ul, std::tuple<std::thread::_State*, std::default_delete<std::thread::_State> > >::type& std::get<1ul, std::thread::_State*, std::default_delete<std::thread::_State> >(std::tuple<std::thread::_State*, std::default_delete<std::thread::_State> >&)>:
    48a7:	55                   	push   %rbp
    48a8:	48 89 e5             	mov    %rsp,%rbp
    48ab:	48 83 ec 10          	sub    $0x10,%rsp
    48af:	48 89 7d f8          	mov    %rdi,-0x8(%rbp)
    48b3:	48 8b 45 f8          	mov    -0x8(%rbp),%rax
    48b7:	48 89 c7             	mov    %rax,%rdi
    48ba:	e8 44 00 00 00       	callq  4903 <std::default_delete<std::thread::_State>& std::__get_helper<1ul, std::default_delete<std::thread::_State>>(std::_Tuple_impl<1ul, std::default_delete<std::thread::_State>>&)>
    48bf:	c9                   	leaveq 
    48c0:	c3                   	retq   
    48c1:	90                   	nop

00000000000048c2 <std::_Tuple_impl<0ul, std::thread::_State*, std::default_delete<std::thread::_State> >::_Tuple_impl()>:
    48c2:	55                   	push   %rbp
    48c3:	48 89 e5             	mov    %rsp,%rbp
    48c6:	48 83 ec 10          	sub    $0x10,%rsp
    48ca:	48 89 7d f8          	mov    %rdi,-0x8(%rbp)
    48ce:	48 8b 45 f8          	mov    -0x8(%rbp),%rax
    48d2:	48 89 c7             	mov    %rax,%rdi
    48d5:	e8 44 00 00 00       	callq  491e <std::_Tuple_impl<1ul, std::default_delete<std::thread::_State> >::_Tuple_impl()>
    48da:	48 8b 45 f8          	mov    -0x8(%rbp),%rax
    48de:	48 89 c7             	mov    %rax,%rdi
    48e1:	e8 54 00 00 00       	callq  493a <std::_Head_base<0ul, std::thread::_State*, false>::_Head_base()>
    48e6:	90                   	nop
    48e7:	c9                   	leaveq 
    48e8:	c3                   	retq   

00000000000048e9 <std::_Tuple_impl<0ul, std::thread::_State*, std::default_delete<std::thread::_State> >::_M_head(std::_Tuple_impl<0ul, std::thread::_State*, std::default_delete<std::thread::_State> >&)>:
    48e9:	55                   	push   %rbp
    48ea:	48 89 e5             	mov    %rsp,%rbp
    48ed:	48 83 ec 10          	sub    $0x10,%rsp
    48f1:	48 89 7d f8          	mov    %rdi,-0x8(%rbp)
    48f5:	48 8b 45 f8          	mov    -0x8(%rbp),%rax
    48f9:	48 89 c7             	mov    %rax,%rdi
    48fc:	e8 4f 00 00 00       	callq  4950 <std::_Head_base<0ul, std::thread::_State*, false>::_M_head(std::_Head_base<0ul, std::thread::_State*, false>&)>
    4901:	c9                   	leaveq 
    4902:	c3                   	retq   

0000000000004903 <std::default_delete<std::thread::_State>& std::__get_helper<1ul, std::default_delete<std::thread::_State>>(std::_Tuple_impl<1ul, std::default_delete<std::thread::_State>>&)>:
    4903:	55                   	push   %rbp
    4904:	48 89 e5             	mov    %rsp,%rbp
    4907:	48 83 ec 10          	sub    $0x10,%rsp
    490b:	48 89 7d f8          	mov    %rdi,-0x8(%rbp)
    490f:	48 8b 45 f8          	mov    -0x8(%rbp),%rax
    4913:	48 89 c7             	mov    %rax,%rdi
    4916:	e8 43 00 00 00       	callq  495e <std::_Tuple_impl<1ul, std::default_delete<std::thread::_State> >::_M_head(std::_Tuple_impl<1ul, std::default_delete<std::thread::_State> >&)>
    491b:	c9                   	leaveq 
    491c:	c3                   	retq   
    491d:	90                   	nop

000000000000491e <std::_Tuple_impl<1ul, std::default_delete<std::thread::_State> >::_Tuple_impl()>:
    491e:	55                   	push   %rbp
    491f:	48 89 e5             	mov    %rsp,%rbp
    4922:	48 83 ec 10          	sub    $0x10,%rsp
    4926:	48 89 7d f8          	mov    %rdi,-0x8(%rbp)
    492a:	48 8b 45 f8          	mov    -0x8(%rbp),%rax
    492e:	48 89 c7             	mov    %rax,%rdi
    4931:	e8 42 00 00 00       	callq  4978 <std::_Head_base<1ul, std::default_delete<std::thread::_State>, true>::_Head_base()>
    4936:	90                   	nop
    4937:	c9                   	leaveq 
    4938:	c3                   	retq   
    4939:	90                   	nop

000000000000493a <std::_Head_base<0ul, std::thread::_State*, false>::_Head_base()>:
    493a:	55                   	push   %rbp
    493b:	48 89 e5             	mov    %rsp,%rbp
    493e:	48 89 7d f8          	mov    %rdi,-0x8(%rbp)
    4942:	48 8b 45 f8          	mov    -0x8(%rbp),%rax
    4946:	48 c7 00 00 00 00 00 	movq   $0x0,(%rax)
    494d:	90                   	nop
    494e:	5d                   	pop    %rbp
    494f:	c3                   	retq   

0000000000004950 <std::_Head_base<0ul, std::thread::_State*, false>::_M_head(std::_Head_base<0ul, std::thread::_State*, false>&)>:
    4950:	55                   	push   %rbp
    4951:	48 89 e5             	mov    %rsp,%rbp
    4954:	48 89 7d f8          	mov    %rdi,-0x8(%rbp)
    4958:	48 8b 45 f8          	mov    -0x8(%rbp),%rax
    495c:	5d                   	pop    %rbp
    495d:	c3                   	retq   

000000000000495e <std::_Tuple_impl<1ul, std::default_delete<std::thread::_State> >::_M_head(std::_Tuple_impl<1ul, std::default_delete<std::thread::_State> >&)>:
    495e:	55                   	push   %rbp
    495f:	48 89 e5             	mov    %rsp,%rbp
    4962:	48 83 ec 10          	sub    $0x10,%rsp
    4966:	48 89 7d f8          	mov    %rdi,-0x8(%rbp)
    496a:	48 8b 45 f8          	mov    -0x8(%rbp),%rax
    496e:	48 89 c7             	mov    %rax,%rdi
    4971:	e8 0d 00 00 00       	callq  4983 <std::_Head_base<1ul, std::default_delete<std::thread::_State>, true>::_M_head(std::_Head_base<1ul, std::default_delete<std::thread::_State>, true>&)>
    4976:	c9                   	leaveq 
    4977:	c3                   	retq   

0000000000004978 <std::_Head_base<1ul, std::default_delete<std::thread::_State>, true>::_Head_base()>:
    4978:	55                   	push   %rbp
    4979:	48 89 e5             	mov    %rsp,%rbp
    497c:	48 89 7d f8          	mov    %rdi,-0x8(%rbp)
    4980:	90                   	nop
    4981:	5d                   	pop    %rbp
    4982:	c3                   	retq   

0000000000004983 <std::_Head_base<1ul, std::default_delete<std::thread::_State>, true>::_M_head(std::_Head_base<1ul, std::default_delete<std::thread::_State>, true>&)>:
    4983:	55                   	push   %rbp
    4984:	48 89 e5             	mov    %rsp,%rbp
    4987:	48 89 7d f8          	mov    %rdi,-0x8(%rbp)
    498b:	48 8b 45 f8          	mov    -0x8(%rbp),%rax
    498f:	5d                   	pop    %rbp
    4990:	c3                   	retq   
    4991:	90                   	nop

0000000000004992 <std::thread::_State_impl<std::thread::_Invoker<std::tuple<void (*)()> > >::~_State_impl()>:
    4992:	55                   	push   %rbp
    4993:	48 89 e5             	mov    %rsp,%rbp
    4996:	48 83 ec 10          	sub    $0x10,%rsp
    499a:	48 89 7d f8          	mov    %rdi,-0x8(%rbp)
    499e:	48 8d 05 bb 32 00 00 	lea    0x32bb(%rip),%rax        # 7c60 <vtable for std::thread::_State_impl<std::thread::_Invoker<std::tuple<void (*)()> > >>
    49a5:	48 8d 50 10          	lea    0x10(%rax),%rdx
    49a9:	48 8b 45 f8          	mov    -0x8(%rbp),%rax
    49ad:	48 89 10             	mov    %rdx,(%rax)
    49b0:	48 8b 45 f8          	mov    -0x8(%rbp),%rax
    49b4:	48 89 c7             	mov    %rax,%rdi
    49b7:	e8 c4 d6 ff ff       	callq  2080 <std::thread::_State::~_State()@plt>
    49bc:	90                   	nop
    49bd:	c9                   	leaveq 
    49be:	c3                   	retq   
    49bf:	90                   	nop

00000000000049c0 <std::thread::_State_impl<std::thread::_Invoker<std::tuple<void (*)()> > >::~_State_impl()>:
    49c0:	55                   	push   %rbp
    49c1:	48 89 e5             	mov    %rsp,%rbp
    49c4:	48 83 ec 10          	sub    $0x10,%rsp
    49c8:	48 89 7d f8          	mov    %rdi,-0x8(%rbp)
    49cc:	48 8b 45 f8          	mov    -0x8(%rbp),%rax
    49d0:	48 89 c7             	mov    %rax,%rdi
    49d3:	e8 ba ff ff ff       	callq  4992 <std::thread::_State_impl<std::thread::_Invoker<std::tuple<void (*)()> > >::~_State_impl()>
    49d8:	48 8b 45 f8          	mov    -0x8(%rbp),%rax
    49dc:	48 89 c7             	mov    %rax,%rdi
    49df:	e8 2c d7 ff ff       	callq  2110 <operator delete(void*)@plt>
    49e4:	c9                   	leaveq 
    49e5:	c3                   	retq   

00000000000049e6 <std::thread::_State_impl<std::thread::_Invoker<std::tuple<void (*)()> > >::_M_run()>:
    49e6:	55                   	push   %rbp
    49e7:	48 89 e5             	mov    %rsp,%rbp
    49ea:	48 83 ec 10          	sub    $0x10,%rsp
    49ee:	48 89 7d f8          	mov    %rdi,-0x8(%rbp)
    49f2:	48 8b 45 f8          	mov    -0x8(%rbp),%rax
    49f6:	48 83 c0 08          	add    $0x8,%rax
    49fa:	48 89 c7             	mov    %rax,%rdi
    49fd:	e8 04 00 00 00       	callq  4a06 <std::thread::_Invoker<std::tuple<void (*)()> >::operator()()>
    4a02:	90                   	nop
    4a03:	c9                   	leaveq 
    4a04:	c3                   	retq   
    4a05:	90                   	nop

0000000000004a06 <std::thread::_Invoker<std::tuple<void (*)()> >::operator()()>:
    4a06:	55                   	push   %rbp
    4a07:	48 89 e5             	mov    %rsp,%rbp
    4a0a:	48 83 ec 20          	sub    $0x20,%rsp
    4a0e:	48 89 7d e8          	mov    %rdi,-0x18(%rbp)
    4a12:	64 48 8b 04 25 28 00 	mov    %fs:0x28,%rax
    4a19:	00 00 
    4a1b:	48 89 45 f8          	mov    %rax,-0x8(%rbp)
    4a1f:	31 c0                	xor    %eax,%eax
    4a21:	48 8b 45 e8          	mov    -0x18(%rbp),%rax
    4a25:	48 83 ec 08          	sub    $0x8,%rsp
    4a29:	52                   	push   %rdx
    4a2a:	48 89 c7             	mov    %rax,%rdi
    4a2d:	e8 1c 00 00 00       	callq  4a4e <decltype (__invoke((_S_declval<0ul>)())) std::thread::_Invoker<std::tuple<void (*)()> >::_M_invoke<0ul>(std::_Index_tuple<0ul>)>
    4a32:	48 83 c4 10          	add    $0x10,%rsp
    4a36:	90                   	nop
    4a37:	48 8b 45 f8          	mov    -0x8(%rbp),%rax
    4a3b:	64 48 33 04 25 28 00 	xor    %fs:0x28,%rax
    4a42:	00 00 
    4a44:	74 05                	je     4a4b <std::thread::_Invoker<std::tuple<void (*)()> >::operator()()+0x45>
    4a46:	e8 f5 d6 ff ff       	callq  2140 <__stack_chk_fail@plt>
    4a4b:	c9                   	leaveq 
    4a4c:	c3                   	retq   
    4a4d:	90                   	nop

0000000000004a4e <decltype (__invoke((_S_declval<0ul>)())) std::thread::_Invoker<std::tuple<void (*)()> >::_M_invoke<0ul>(std::_Index_tuple<0ul>)>:
    4a4e:	55                   	push   %rbp
    4a4f:	48 89 e5             	mov    %rsp,%rbp
    4a52:	48 83 ec 10          	sub    $0x10,%rsp
    4a56:	48 89 7d f8          	mov    %rdi,-0x8(%rbp)
    4a5a:	48 8b 45 f8          	mov    -0x8(%rbp),%rax
    4a5e:	48 89 c7             	mov    %rax,%rdi
    4a61:	e8 13 00 00 00       	callq  4a79 <std::remove_reference<std::tuple<void (*)()>&>::type&& std::move<std::tuple<void (*)()>&>(std::tuple<void (*)()>&)>
    4a66:	48 89 c7             	mov    %rax,%rdi
    4a69:	e8 4d 00 00 00       	callq  4abb <std::tuple_element<0ul, std::tuple<void (*)()> >::type&& std::get<0ul, void (*)()>(std::tuple<void (*)()>&&)>
    4a6e:	48 89 c7             	mov    %rax,%rdi
    4a71:	e8 f7 f8 ff ff       	callq  436d <std::__invoke_result<void (*)()>::type std::__invoke<void (*)()>(void (*&&)())>
    4a76:	90                   	nop
    4a77:	c9                   	leaveq 
    4a78:	c3                   	retq   

0000000000004a79 <std::remove_reference<std::tuple<void (*)()>&>::type&& std::move<std::tuple<void (*)()>&>(std::tuple<void (*)()>&)>:
    4a79:	55                   	push   %rbp
    4a7a:	48 89 e5             	mov    %rsp,%rbp
    4a7d:	48 89 7d f8          	mov    %rdi,-0x8(%rbp)
    4a81:	48 8b 45 f8          	mov    -0x8(%rbp),%rax
    4a85:	5d                   	pop    %rbp
    4a86:	c3                   	retq   

0000000000004a87 <std::tuple_element<0ul, std::tuple<void (*)()> >::type& std::get<0ul, void (*)()>(std::tuple<void (*)()>&)>:
    4a87:	55                   	push   %rbp
    4a88:	48 89 e5             	mov    %rsp,%rbp
    4a8b:	48 83 ec 10          	sub    $0x10,%rsp
    4a8f:	48 89 7d f8          	mov    %rdi,-0x8(%rbp)
    4a93:	48 8b 45 f8          	mov    -0x8(%rbp),%rax
    4a97:	48 89 c7             	mov    %rax,%rdi
    4a9a:	e8 02 00 00 00       	callq  4aa1 <void (*&std::__get_helper<0ul, void (*)()>(std::_Tuple_impl<0ul, void (*)()>&))()>
    4a9f:	c9                   	leaveq 
    4aa0:	c3                   	retq   

0000000000004aa1 <void (*&std::__get_helper<0ul, void (*)()>(std::_Tuple_impl<0ul, void (*)()>&))()>:
    4aa1:	55                   	push   %rbp
    4aa2:	48 89 e5             	mov    %rsp,%rbp
    4aa5:	48 83 ec 10          	sub    $0x10,%rsp
    4aa9:	48 89 7d f8          	mov    %rdi,-0x8(%rbp)
    4aad:	48 8b 45 f8          	mov    -0x8(%rbp),%rax
    4ab1:	48 89 c7             	mov    %rax,%rdi
    4ab4:	e8 9a fb ff ff       	callq  4653 <std::_Tuple_impl<0ul, void (*)()>::_M_head(std::_Tuple_impl<0ul, void (*)()>&)>
    4ab9:	c9                   	leaveq 
    4aba:	c3                   	retq   

0000000000004abb <std::tuple_element<0ul, std::tuple<void (*)()> >::type&& std::get<0ul, void (*)()>(std::tuple<void (*)()>&&)>:
    4abb:	55                   	push   %rbp
    4abc:	48 89 e5             	mov    %rsp,%rbp
    4abf:	48 83 ec 10          	sub    $0x10,%rsp
    4ac3:	48 89 7d f8          	mov    %rdi,-0x8(%rbp)
    4ac7:	48 8b 45 f8          	mov    -0x8(%rbp),%rax
    4acb:	48 89 c7             	mov    %rax,%rdi
    4ace:	e8 b4 ff ff ff       	callq  4a87 <std::tuple_element<0ul, std::tuple<void (*)()> >::type& std::get<0ul, void (*)()>(std::tuple<void (*)()>&)>
    4ad3:	48 89 c7             	mov    %rax,%rdi
    4ad6:	e8 02 00 00 00       	callq  4add <void (*&&std::forward<void (*&&)()>(std::remove_reference<void (*&&)()>::type&))()>
    4adb:	c9                   	leaveq 
    4adc:	c3                   	retq   

0000000000004add <void (*&&std::forward<void (*&&)()>(std::remove_reference<void (*&&)()>::type&))()>:
    4add:	55                   	push   %rbp
    4ade:	48 89 e5             	mov    %rsp,%rbp
    4ae1:	48 89 7d f8          	mov    %rdi,-0x8(%rbp)
    4ae5:	48 8b 45 f8          	mov    -0x8(%rbp),%rax
    4ae9:	5d                   	pop    %rbp
    4aea:	c3                   	retq   

0000000000004aeb <ecall_libc_functions>:
    4aeb:	55                   	push   %rbp
    4aec:	48 89 e5             	mov    %rsp,%rbp
    4aef:	48 83 ec 30          	sub    $0x30,%rsp
    4af3:	64 48 8b 04 25 28 00 	mov    %fs:0x28,%rax
    4afa:	00 00 
    4afc:	48 89 45 f8          	mov    %rax,-0x8(%rbp)
    4b00:	31 c0                	xor    %eax,%eax
    4b02:	c7 45 dc 01 00 00 00 	movl   $0x1,-0x24(%rbp)
    4b09:	48 8d 05 88 36 00 00 	lea    0x3688(%rip),%rax        # 8198 <global_eid>
    4b10:	48 8b 00             	mov    (%rax),%rax
    4b13:	48 89 c7             	mov    %rax,%rdi
    4b16:	e8 be e3 ff ff       	callq  2ed9 <ecall_malloc_free>
    4b1b:	89 45 dc             	mov    %eax,-0x24(%rbp)
    4b1e:	83 7d dc 00          	cmpl   $0x0,-0x24(%rbp)
    4b22:	74 05                	je     4b29 <ecall_libc_functions+0x3e>
    4b24:	e8 97 d5 ff ff       	callq  20c0 <abort@plt>
    4b29:	c7 45 e0 00 00 00 00 	movl   $0x0,-0x20(%rbp)
    4b30:	c7 45 e4 00 00 00 00 	movl   $0x0,-0x1c(%rbp)
    4b37:	c7 45 e8 00 00 00 00 	movl   $0x0,-0x18(%rbp)
    4b3e:	c7 45 ec 00 00 00 00 	movl   $0x0,-0x14(%rbp)
    4b45:	48 8d 05 4c 36 00 00 	lea    0x364c(%rip),%rax        # 8198 <global_eid>
    4b4c:	48 8b 00             	mov    (%rax),%rax
    4b4f:	48 8d 4d e0          	lea    -0x20(%rbp),%rcx
    4b53:	ba 00 00 00 00       	mov    $0x0,%edx
    4b58:	48 89 ce             	mov    %rcx,%rsi
    4b5b:	48 89 c7             	mov    %rax,%rdi
    4b5e:	e8 a7 e3 ff ff       	callq  2f0a <ecall_sgx_cpuid>
    4b63:	89 45 dc             	mov    %eax,-0x24(%rbp)
    4b66:	83 7d dc 00          	cmpl   $0x0,-0x24(%rbp)
    4b6a:	74 05                	je     4b71 <ecall_libc_functions+0x86>
    4b6c:	e8 4f d5 ff ff       	callq  20c0 <abort@plt>
    4b71:	90                   	nop
    4b72:	48 8b 45 f8          	mov    -0x8(%rbp),%rax
    4b76:	64 48 33 04 25 28 00 	xor    %fs:0x28,%rax
    4b7d:	00 00 
    4b7f:	74 05                	je     4b86 <ecall_libc_functions+0x9b>
    4b81:	e8 ba d5 ff ff       	callq  2140 <__stack_chk_fail@plt>
    4b86:	c9                   	leaveq 
    4b87:	c3                   	retq   

0000000000004b88 <ecall_libcxx_functions>:
    4b88:	55                   	push   %rbp
    4b89:	48 89 e5             	mov    %rsp,%rbp
    4b8c:	48 83 ec 10          	sub    $0x10,%rsp
    4b90:	c7 45 fc 01 00 00 00 	movl   $0x1,-0x4(%rbp)
    4b97:	48 8d 05 fa 35 00 00 	lea    0x35fa(%rip),%rax        # 8198 <global_eid>
    4b9e:	48 8b 00             	mov    (%rax),%rax
    4ba1:	48 89 c7             	mov    %rax,%rdi
    4ba4:	e8 cc e3 ff ff       	callq  2f75 <ecall_exception>
    4ba9:	89 45 fc             	mov    %eax,-0x4(%rbp)
    4bac:	83 7d fc 00          	cmpl   $0x0,-0x4(%rbp)
    4bb0:	74 05                	je     4bb7 <ecall_libcxx_functions+0x2f>
    4bb2:	e8 09 d5 ff ff       	callq  20c0 <abort@plt>
    4bb7:	48 8d 05 da 35 00 00 	lea    0x35da(%rip),%rax        # 8198 <global_eid>
    4bbe:	48 8b 00             	mov    (%rax),%rax
    4bc1:	48 89 c7             	mov    %rax,%rdi
    4bc4:	e8 dd e3 ff ff       	callq  2fa6 <ecall_map>
    4bc9:	89 45 fc             	mov    %eax,-0x4(%rbp)
    4bcc:	83 7d fc 00          	cmpl   $0x0,-0x4(%rbp)
    4bd0:	74 05                	je     4bd7 <ecall_libcxx_functions+0x4f>
    4bd2:	e8 e9 d4 ff ff       	callq  20c0 <abort@plt>
    4bd7:	90                   	nop
    4bd8:	c9                   	leaveq 
    4bd9:	c3                   	retq   
    4bda:	66 0f 1f 44 00 00    	nopw   0x0(%rax,%rax,1)

0000000000004be0 <__libc_csu_init>:
    4be0:	41 57                	push   %r15
    4be2:	41 56                	push   %r14
    4be4:	49 89 d7             	mov    %rdx,%r15
    4be7:	41 55                	push   %r13
    4be9:	41 54                	push   %r12
    4beb:	4c 8d 25 fe 2f 00 00 	lea    0x2ffe(%rip),%r12        # 7bf0 <__frame_dummy_init_array_entry>
    4bf2:	55                   	push   %rbp
    4bf3:	48 8d 2d fe 2f 00 00 	lea    0x2ffe(%rip),%rbp        # 7bf8 <__init_array_end>
    4bfa:	53                   	push   %rbx
    4bfb:	41 89 fd             	mov    %edi,%r13d
    4bfe:	49 89 f6             	mov    %rsi,%r14
    4c01:	4c 29 e5             	sub    %r12,%rbp
    4c04:	48 83 ec 08          	sub    $0x8,%rsp
    4c08:	48 c1 fd 03          	sar    $0x3,%rbp
    4c0c:	e8 ef d3 ff ff       	callq  2000 <_init>
    4c11:	48 85 ed             	test   %rbp,%rbp
    4c14:	74 20                	je     4c36 <__libc_csu_init+0x56>
    4c16:	31 db                	xor    %ebx,%ebx
    4c18:	0f 1f 84 00 00 00 00 	nopl   0x0(%rax,%rax,1)
    4c1f:	00 
    4c20:	4c 89 fa             	mov    %r15,%rdx
    4c23:	4c 89 f6             	mov    %r14,%rsi
    4c26:	44 89 ef             	mov    %r13d,%edi
    4c29:	41 ff 14 dc          	callq  *(%r12,%rbx,8)
    4c2d:	48 83 c3 01          	add    $0x1,%rbx
    4c31:	48 39 dd             	cmp    %rbx,%rbp
    4c34:	75 ea                	jne    4c20 <__libc_csu_init+0x40>
    4c36:	48 83 c4 08          	add    $0x8,%rsp
    4c3a:	5b                   	pop    %rbx
    4c3b:	5d                   	pop    %rbp
    4c3c:	41 5c                	pop    %r12
    4c3e:	41 5d                	pop    %r13
    4c40:	41 5e                	pop    %r14
    4c42:	41 5f                	pop    %r15
    4c44:	c3                   	retq   
    4c45:	90                   	nop
    4c46:	66 2e 0f 1f 84 00 00 	nopw   %cs:0x0(%rax,%rax,1)
    4c4d:	00 00 00 

0000000000004c50 <__libc_csu_fini>:
    4c50:	f3 c3                	repz retq 

Disassembly of section .fini:

0000000000004c54 <_fini>:
    4c54:	48 83 ec 08          	sub    $0x8,%rsp
    4c58:	48 83 c4 08          	add    $0x8,%rsp
    4c5c:	c3                   	retq   
