
./enclave.signed.so:     file format elf64-x86-64


Disassembly of section .plt:

0000000000001000 <.plt>:
    1000:	ff 35 c2 ff 00 00    	pushq  0xffc2(%rip)        # 10fc8 <_GLOBAL_OFFSET_TABLE_+0x8>
    1006:	ff 25 c4 ff 00 00    	jmpq   *0xffc4(%rip)        # 10fd0 <_GLOBAL_OFFSET_TABLE_+0x10>
    100c:	0f 1f 40 00          	nopl   0x0(%rax)

Disassembly of section .plt.got:

0000000000001010 <_Z9pcl_entryPvS_@plt>:
    1010:	ff 25 c2 ff 00 00    	jmpq   *0xffc2(%rip)        # 10fd8 <_Z9pcl_entryPvS_>
    1016:	66 90                	xchg   %ax,%ax

0000000000001018 <ippcpSetCpuFeatures@plt>:
    1018:	ff 25 c2 ff 00 00    	jmpq   *0xffc2(%rip)        # 10fe0 <ippcpSetCpuFeatures>
    101e:	66 90                	xchg   %ax,%ax

Disassembly of section .text:

0000000000001020 <sgx_test>:
typedef struct ms_test2_t {
	int ms_retval;
} ms_test2_t;

static sgx_status_t SGX_CDECL sgx_test(void* pms)
{
    1020:	55                   	push   %rbp
    1021:	48 89 e5             	mov    %rsp,%rbp
    1024:	48 83 ec 20          	sub    $0x20,%rsp
    1028:	48 89 7d e8          	mov    %rdi,-0x18(%rbp)
	CHECK_REF_POINTER(pms, sizeof(ms_test_t));
    102c:	48 83 7d e8 00       	cmpq   $0x0,-0x18(%rbp)
    1031:	74 15                	je     1048 <sgx_test+0x28>
    1033:	48 8b 45 e8          	mov    -0x18(%rbp),%rax
    1037:	be 04 00 00 00       	mov    $0x4,%esi
    103c:	48 89 c7             	mov    %rax,%rdi
    103f:	e8 51 03 00 00       	callq  1395 <sgx_is_outside_enclave>
    1044:	85 c0                	test   %eax,%eax
    1046:	75 07                	jne    104f <sgx_test+0x2f>
    1048:	b8 02 00 00 00       	mov    $0x2,%eax
    104d:	eb 22                	jmp    1071 <sgx_test+0x51>
	//
	// fence after pointer checks
	//
	sgx_lfence();
    104f:	0f ae e8             	lfence 
	ms_test_t* ms = SGX_CAST(ms_test_t*, pms);
    1052:	48 8b 45 e8          	mov    -0x18(%rbp),%rax
    1056:	48 89 45 f8          	mov    %rax,-0x8(%rbp)
	sgx_status_t status = SGX_SUCCESS;
    105a:	c7 45 f4 00 00 00 00 	movl   $0x0,-0xc(%rbp)



	ms->ms_retval = test();
    1061:	e8 60 00 00 00       	callq  10c6 <test>
    1066:	89 c2                	mov    %eax,%edx
    1068:	48 8b 45 f8          	mov    -0x8(%rbp),%rax
    106c:	89 10                	mov    %edx,(%rax)


	return status;
    106e:	8b 45 f4             	mov    -0xc(%rbp),%eax
}
    1071:	c9                   	leaveq 
    1072:	c3                   	retq   

0000000000001073 <sgx_test2>:

static sgx_status_t SGX_CDECL sgx_test2(void* pms)
{
    1073:	55                   	push   %rbp
    1074:	48 89 e5             	mov    %rsp,%rbp
    1077:	48 83 ec 20          	sub    $0x20,%rsp
    107b:	48 89 7d e8          	mov    %rdi,-0x18(%rbp)
	CHECK_REF_POINTER(pms, sizeof(ms_test2_t));
    107f:	48 83 7d e8 00       	cmpq   $0x0,-0x18(%rbp)
    1084:	74 15                	je     109b <sgx_test2+0x28>
    1086:	48 8b 45 e8          	mov    -0x18(%rbp),%rax
    108a:	be 04 00 00 00       	mov    $0x4,%esi
    108f:	48 89 c7             	mov    %rax,%rdi
    1092:	e8 fe 02 00 00       	callq  1395 <sgx_is_outside_enclave>
    1097:	85 c0                	test   %eax,%eax
    1099:	75 07                	jne    10a2 <sgx_test2+0x2f>
    109b:	b8 02 00 00 00       	mov    $0x2,%eax
    10a0:	eb 22                	jmp    10c4 <sgx_test2+0x51>
	//
	// fence after pointer checks
	//
	sgx_lfence();
    10a2:	0f ae e8             	lfence 
	ms_test2_t* ms = SGX_CAST(ms_test2_t*, pms);
    10a5:	48 8b 45 e8          	mov    -0x18(%rbp),%rax
    10a9:	48 89 45 f8          	mov    %rax,-0x8(%rbp)
	sgx_status_t status = SGX_SUCCESS;
    10ad:	c7 45 f4 00 00 00 00 	movl   $0x0,-0xc(%rbp)



	ms->ms_retval = test2();
    10b4:	e8 2d 00 00 00       	callq  10e6 <test2>
    10b9:	89 c2                	mov    %eax,%edx
    10bb:	48 8b 45 f8          	mov    -0x8(%rbp),%rax
    10bf:	89 10                	mov    %edx,(%rax)


	return status;
    10c1:	8b 45 f4             	mov    -0xc(%rbp),%eax
}
    10c4:	c9                   	leaveq 
    10c5:	c3                   	retq   

00000000000010c6 <test>:
	return;
}
#pragma GCC pop_options
extern int relocate_enclave(void * base);
extern "C" int enter_enclave(int index, void *ms, void *tcs, int cssa);
int test() {
    10c6:	55                   	push   %rbp
    10c7:	48 89 e5             	mov    %rsp,%rbp
	volatile int i =0;
    10ca:	c7 45 fc 00 00 00 00 	movl   $0x0,-0x4(%rbp)
	i=43;
    10d1:	c7 45 fc 2b 00 00 00 	movl   $0x2b,-0x4(%rbp)
	i++;
    10d8:	8b 45 fc             	mov    -0x4(%rbp),%eax
    10db:	83 c0 01             	add    $0x1,%eax
    10de:	89 45 fc             	mov    %eax,-0x4(%rbp)
	return (int)i;
    10e1:	8b 45 fc             	mov    -0x4(%rbp),%eax
}
    10e4:	5d                   	pop    %rbp
    10e5:	c3                   	retq   

00000000000010e6 <test2>:

int test2() {
    10e6:	55                   	push   %rbp
    10e7:	48 89 e5             	mov    %rsp,%rbp
	volatile int i =0;
    10ea:	c7 45 fc 00 00 00 00 	movl   $0x0,-0x4(%rbp)
        i=43;
    10f1:	c7 45 fc 2b 00 00 00 	movl   $0x2b,-0x4(%rbp)
        i++;
    10f8:	8b 45 fc             	mov    -0x4(%rbp),%eax
    10fb:	83 c0 01             	add    $0x1,%eax
    10fe:	89 45 fc             	mov    %eax,-0x4(%rbp)
        return (int)i;
    1101:	8b 45 fc             	mov    -0x4(%rbp),%eax
}
    1104:	5d                   	pop    %rbp
    1105:	c3                   	retq   

0000000000001106 <_ZL28set_global_feature_indicatormm>:
extern "C" int sgx_init_string_lib(uint64_t cpu_feature_indicator);
extern "C" sgx_status_t sgx_init_crypto_lib(uint64_t cpu_feature_indicator, uint32_t *cpuinfo_table);


static int set_global_feature_indicator(uint64_t feature_bit_array, uint64_t xfrm)
{
    1106:	55                   	push   %rbp
    1107:	48 89 e5             	mov    %rsp,%rbp
    110a:	48 89 7d f8          	mov    %rdi,-0x8(%rbp)
    110e:	48 89 75 f0          	mov    %rsi,-0x10(%rbp)
    // Confirm the reserved bits and the unset bits by uRTS must be 0.
    
    
    if(feature_bit_array & (RESERVED_CPU_FEATURE_BIT))
    1112:	48 b8 00 00 00 00 00 	movabs $0xff00000000000000,%rax
    1119:	00 00 ff 
    111c:	48 23 45 f8          	and    -0x8(%rbp),%rax
    1120:	48 85 c0             	test   %rax,%rax
    1123:	74 0e                	je     1133 <_ZL28set_global_feature_indicatormm+0x2d>
    {
        // clear the reserved bits
        feature_bit_array = feature_bit_array & (~(RESERVED_CPU_FEATURE_BIT));
    1125:	48 b8 ff ff ff ff ff 	movabs $0xffffffffffffff,%rax
    112c:	ff ff 00 
    112f:	48 21 45 f8          	and    %rax,-0x8(%rbp)
    }

    // Requires SSE4.1. Take SSE4.1 as the baseline.
    if(!(feature_bit_array & ~(CPU_FEATURE_SSE4_1 - 1)))
    1133:	48 8b 45 f8          	mov    -0x8(%rbp),%rax
    1137:	48 25 00 fe ff ff    	and    $0xfffffffffffffe00,%rax
    113d:	48 85 c0             	test   %rax,%rax
    1140:	75 0a                	jne    114c <_ZL28set_global_feature_indicatormm+0x46>
    {
        return -1;
    1142:	b8 ff ff ff ff       	mov    $0xffffffff,%eax
    1147:	e9 02 01 00 00       	jmpq   124e <_ZL28set_global_feature_indicatormm+0x148>
    }

    // Check for inconsistencies in the CPUID feature mask.
    if ( (((feature_bit_array & CPU_FEATURE_SSE) == CPU_FEATURE_SSE) &&((feature_bit_array & (CPU_FEATURE_SSE - 1)) != (CPU_FEATURE_SSE - 1))) || 
    114c:	48 8b 45 f8          	mov    -0x8(%rbp),%rax
    1150:	83 e0 20             	and    $0x20,%eax
    1153:	48 85 c0             	test   %rax,%rax
    1156:	74 11                	je     1169 <_ZL28set_global_feature_indicatormm+0x63>
    1158:	48 8b 45 f8          	mov    -0x8(%rbp),%rax
    115c:	83 e0 1f             	and    $0x1f,%eax
    115f:	48 83 f8 1f          	cmp    $0x1f,%rax
    1163:	0f 85 8f 00 00 00    	jne    11f8 <_ZL28set_global_feature_indicatormm+0xf2>
        (((feature_bit_array & CPU_FEATURE_SSE2) == CPU_FEATURE_SSE2) &&((feature_bit_array & (CPU_FEATURE_SSE2 - 1)) != (CPU_FEATURE_SSE2 - 1))) ||
    1169:	48 8b 45 f8          	mov    -0x8(%rbp),%rax
    116d:	83 e0 40             	and    $0x40,%eax
    if ( (((feature_bit_array & CPU_FEATURE_SSE) == CPU_FEATURE_SSE) &&((feature_bit_array & (CPU_FEATURE_SSE - 1)) != (CPU_FEATURE_SSE - 1))) || 
    1170:	48 85 c0             	test   %rax,%rax
    1173:	74 0d                	je     1182 <_ZL28set_global_feature_indicatormm+0x7c>
        (((feature_bit_array & CPU_FEATURE_SSE2) == CPU_FEATURE_SSE2) &&((feature_bit_array & (CPU_FEATURE_SSE2 - 1)) != (CPU_FEATURE_SSE2 - 1))) ||
    1175:	48 8b 45 f8          	mov    -0x8(%rbp),%rax
    1179:	83 e0 3f             	and    $0x3f,%eax
    117c:	48 83 f8 3f          	cmp    $0x3f,%rax
    1180:	75 76                	jne    11f8 <_ZL28set_global_feature_indicatormm+0xf2>
        (((feature_bit_array & CPU_FEATURE_SSE3) == CPU_FEATURE_SSE3) &&((feature_bit_array & (CPU_FEATURE_SSE3 - 1)) != (CPU_FEATURE_SSE3 - 1))) ||
    1182:	48 8b 45 f8          	mov    -0x8(%rbp),%rax
    1186:	25 80 00 00 00       	and    $0x80,%eax
        (((feature_bit_array & CPU_FEATURE_SSE2) == CPU_FEATURE_SSE2) &&((feature_bit_array & (CPU_FEATURE_SSE2 - 1)) != (CPU_FEATURE_SSE2 - 1))) ||
    118b:	48 85 c0             	test   %rax,%rax
    118e:	74 0d                	je     119d <_ZL28set_global_feature_indicatormm+0x97>
        (((feature_bit_array & CPU_FEATURE_SSE3) == CPU_FEATURE_SSE3) &&((feature_bit_array & (CPU_FEATURE_SSE3 - 1)) != (CPU_FEATURE_SSE3 - 1))) ||
    1190:	48 8b 45 f8          	mov    -0x8(%rbp),%rax
    1194:	83 e0 7f             	and    $0x7f,%eax
    1197:	48 83 f8 7f          	cmp    $0x7f,%rax
    119b:	75 5b                	jne    11f8 <_ZL28set_global_feature_indicatormm+0xf2>
        (((feature_bit_array & CPU_FEATURE_SSSE3) == CPU_FEATURE_SSSE3) && ((feature_bit_array & (CPU_FEATURE_SSSE3 - 1)) != (CPU_FEATURE_SSSE3 - 1))) ||
    119d:	48 8b 45 f8          	mov    -0x8(%rbp),%rax
    11a1:	25 00 01 00 00       	and    $0x100,%eax
        (((feature_bit_array & CPU_FEATURE_SSE3) == CPU_FEATURE_SSE3) &&((feature_bit_array & (CPU_FEATURE_SSE3 - 1)) != (CPU_FEATURE_SSE3 - 1))) ||
    11a6:	48 85 c0             	test   %rax,%rax
    11a9:	74 0f                	je     11ba <_ZL28set_global_feature_indicatormm+0xb4>
        (((feature_bit_array & CPU_FEATURE_SSSE3) == CPU_FEATURE_SSSE3) && ((feature_bit_array & (CPU_FEATURE_SSSE3 - 1)) != (CPU_FEATURE_SSSE3 - 1))) ||
    11ab:	48 8b 45 f8          	mov    -0x8(%rbp),%rax
    11af:	0f b6 c0             	movzbl %al,%eax
    11b2:	48 3d ff 00 00 00    	cmp    $0xff,%rax
    11b8:	75 3e                	jne    11f8 <_ZL28set_global_feature_indicatormm+0xf2>
        (((feature_bit_array & CPU_FEATURE_SSE4_1) == CPU_FEATURE_SSE4_1) && ((feature_bit_array & (CPU_FEATURE_SSE4_1 - 1)) != (CPU_FEATURE_SSE4_1 - 1))) ||
    11ba:	48 8b 45 f8          	mov    -0x8(%rbp),%rax
    11be:	25 00 02 00 00       	and    $0x200,%eax
        (((feature_bit_array & CPU_FEATURE_SSSE3) == CPU_FEATURE_SSSE3) && ((feature_bit_array & (CPU_FEATURE_SSSE3 - 1)) != (CPU_FEATURE_SSSE3 - 1))) ||
    11c3:	48 85 c0             	test   %rax,%rax
    11c6:	74 11                	je     11d9 <_ZL28set_global_feature_indicatormm+0xd3>
        (((feature_bit_array & CPU_FEATURE_SSE4_1) == CPU_FEATURE_SSE4_1) && ((feature_bit_array & (CPU_FEATURE_SSE4_1 - 1)) != (CPU_FEATURE_SSE4_1 - 1))) ||
    11c8:	48 8b 45 f8          	mov    -0x8(%rbp),%rax
    11cc:	25 ff 01 00 00       	and    $0x1ff,%eax
    11d1:	48 3d ff 01 00 00    	cmp    $0x1ff,%rax
    11d7:	75 1f                	jne    11f8 <_ZL28set_global_feature_indicatormm+0xf2>
        (((feature_bit_array & CPU_FEATURE_SSE4_2) == CPU_FEATURE_SSE4_2) && ((feature_bit_array & (CPU_FEATURE_SSE4_2 - 1)) != (CPU_FEATURE_SSE4_2 - 1))) )
    11d9:	48 8b 45 f8          	mov    -0x8(%rbp),%rax
    11dd:	25 00 04 00 00       	and    $0x400,%eax
        (((feature_bit_array & CPU_FEATURE_SSE4_1) == CPU_FEATURE_SSE4_1) && ((feature_bit_array & (CPU_FEATURE_SSE4_1 - 1)) != (CPU_FEATURE_SSE4_1 - 1))) ||
    11e2:	48 85 c0             	test   %rax,%rax
    11e5:	74 18                	je     11ff <_ZL28set_global_feature_indicatormm+0xf9>
        (((feature_bit_array & CPU_FEATURE_SSE4_2) == CPU_FEATURE_SSE4_2) && ((feature_bit_array & (CPU_FEATURE_SSE4_2 - 1)) != (CPU_FEATURE_SSE4_2 - 1))) )
    11e7:	48 8b 45 f8          	mov    -0x8(%rbp),%rax
    11eb:	25 ff 03 00 00       	and    $0x3ff,%eax
    11f0:	48 3d ff 03 00 00    	cmp    $0x3ff,%rax
    11f6:	74 07                	je     11ff <_ZL28set_global_feature_indicatormm+0xf9>
    {
        return -1;
    11f8:	b8 ff ff ff ff       	mov    $0xffffffff,%eax
    11fd:	eb 4f                	jmp    124e <_ZL28set_global_feature_indicatormm+0x148>
    }

    // Determine whether the OS & ENCLAVE support SAVE/RESTORE of the AVX register set
    // IF NOT, clear the advanced feature set bits corresponding to AVX and beyond
    if(!XFEATURE_ENABLED_AVX(xfrm))
    11ff:	48 8b 45 f0          	mov    -0x10(%rbp),%rax
    1203:	83 e0 06             	and    $0x6,%eax
    1206:	48 83 f8 06          	cmp    $0x6,%rax
    120a:	74 10                	je     121c <_ZL28set_global_feature_indicatormm+0x116>
    {
        // AVX is disabled by OS, so clear the AVX related feature bits
	feature_bit_array &= (~(CPU_FEATURE_AVX | CPU_FEATURE_VAES | CPU_FEATURE_VPCLMULQDQ | CPU_FEATURE_F16C | CPU_FEATURE_AVX2 |
    120c:	48 b8 ff 7f 12 86 08 	movabs $0xfffe200886127fff,%rax
    1213:	20 fe ff 
    1216:	48 21 45 f8          	and    %rax,-0x8(%rbp)
    121a:	eb 1f                	jmp    123b <_ZL28set_global_feature_indicatormm+0x135>
            CPU_FEATURE_AVX512F | CPU_FEATURE_AVX512CD | CPU_FEATURE_AVX512ER | CPU_FEATURE_AVX512PF | CPU_FEATURE_AVX512DQ | CPU_FEATURE_AVX512BW |
            CPU_FEATURE_AVX512VL | CPU_FEATURE_AVX512IFMA52 | CPU_FEATURE_AVX512VBMI | CPU_FEATURE_AVX512_VPOPCNTDQ | CPU_FEATURE_AVX512_4VNNIW |
            CPU_FEATURE_AVX512_4FMAPS | CPU_FEATURE_AVX512_BITALG | CPU_FEATURE_AVX512_VBMI2 | CPU_FEATURE_AVX512_VNNI));
    }

    else if (!XFEATURE_ENABLED_AVX3(xfrm))
    121c:	48 8b 45 f0          	mov    -0x10(%rbp),%rax
    1220:	25 e0 00 00 00       	and    $0xe0,%eax
    1225:	48 3d e0 00 00 00    	cmp    $0xe0,%rax
    122b:	74 0e                	je     123b <_ZL28set_global_feature_indicatormm+0x135>
    {
        feature_bit_array &= (~(CPU_FEATURE_AVX512F | CPU_FEATURE_AVX512CD | CPU_FEATURE_AVX512ER | CPU_FEATURE_AVX512PF | CPU_FEATURE_AVX512DQ |
    122d:	48 b8 ff ff ff b6 18 	movabs $0xfffee018b6ffffff,%rax
    1234:	e0 fe ff 
    1237:	48 21 45 f8          	and    %rax,-0x8(%rbp)
            CPU_FEATURE_AVX512BW | CPU_FEATURE_AVX512VL | CPU_FEATURE_AVX512IFMA52 | CPU_FEATURE_AVX512VBMI | CPU_FEATURE_AVX512_VPOPCNTDQ |
            CPU_FEATURE_AVX512_4VNNIW | CPU_FEATURE_AVX512_4FMAPS | CPU_FEATURE_AVX512_BITALG | CPU_FEATURE_AVX512_VBMI2 | CPU_FEATURE_AVX512_VNNI));
    }

    g_cpu_feature_indicator = feature_bit_array;
    123b:	48 8d 05 a6 fb 00 00 	lea    0xfba6(%rip),%rax        # 10de8 <g_cpu_feature_indicator>
    1242:	48 8b 55 f8          	mov    -0x8(%rbp),%rdx
    1246:	48 89 10             	mov    %rdx,(%rax)
    return 0;
    1249:	b8 00 00 00 00       	mov    $0x0,%eax
}
    124e:	5d                   	pop    %rbp
    124f:	c3                   	retq   

0000000000001250 <init_optimized_libs>:

extern "C" int init_optimized_libs(const uint64_t feature_bit_array, uint32_t *cpuinfo_table, uint64_t xfrm)
{
    1250:	55                   	push   %rbp
    1251:	48 89 e5             	mov    %rsp,%rbp
    1254:	48 83 ec 20          	sub    $0x20,%rsp
    1258:	48 89 7d f8          	mov    %rdi,-0x8(%rbp)
    125c:	48 89 75 f0          	mov    %rsi,-0x10(%rbp)
    1260:	48 89 55 e8          	mov    %rdx,-0x18(%rbp)
    if (g_enclave_state != ENCLAVE_INIT_IN_PROGRESS)
    1264:	48 8d 05 35 fe 00 00 	lea    0xfe35(%rip),%rax        # 110a0 <g_enclave_state>
    126b:	8b 00                	mov    (%rax),%eax
    126d:	83 f8 01             	cmp    $0x1,%eax
    1270:	74 07                	je     1279 <init_optimized_libs+0x29>
    {
        return -1;
    1272:	b8 ff ff ff ff       	mov    $0xffffffff,%eax
    1277:	eb 73                	jmp    12ec <init_optimized_libs+0x9c>
    }
    // set the global feature indicator
    if(set_global_feature_indicator(feature_bit_array, xfrm))
    1279:	48 8b 55 e8          	mov    -0x18(%rbp),%rdx
    127d:	48 8b 45 f8          	mov    -0x8(%rbp),%rax
    1281:	48 89 d6             	mov    %rdx,%rsi
    1284:	48 89 c7             	mov    %rax,%rdi
    1287:	e8 7a fe ff ff       	callq  1106 <_ZL28set_global_feature_indicatormm>
    128c:	85 c0                	test   %eax,%eax
    128e:	0f 95 c0             	setne  %al
    1291:	84 c0                	test   %al,%al
    1293:	74 07                	je     129c <init_optimized_libs+0x4c>
    {
        return -1;
    1295:	b8 ff ff ff ff       	mov    $0xffffffff,%eax
    129a:	eb 50                	jmp    12ec <init_optimized_libs+0x9c>
    }

    // Init string library with the global feature indicator
    if(sgx_init_string_lib(g_cpu_feature_indicator) != 0)
    129c:	48 8d 05 45 fb 00 00 	lea    0xfb45(%rip),%rax        # 10de8 <g_cpu_feature_indicator>
    12a3:	48 8b 00             	mov    (%rax),%rax
    12a6:	48 89 c7             	mov    %rax,%rdi
    12a9:	e8 42 a1 00 00       	callq  b3f0 <sgx_init_string_lib>
    12ae:	85 c0                	test   %eax,%eax
    12b0:	0f 95 c0             	setne  %al
    12b3:	84 c0                	test   %al,%al
    12b5:	74 07                	je     12be <init_optimized_libs+0x6e>
    {
        return -1;
    12b7:	b8 ff ff ff ff       	mov    $0xffffffff,%eax
    12bc:	eb 2e                	jmp    12ec <init_optimized_libs+0x9c>
    }

    // Init IPP crypto library with the global feature indicator	
    if(sgx_init_crypto_lib(g_cpu_feature_indicator, cpuinfo_table) != 0)
    12be:	48 8d 05 23 fb 00 00 	lea    0xfb23(%rip),%rax        # 10de8 <g_cpu_feature_indicator>
    12c5:	48 8b 00             	mov    (%rax),%rax
    12c8:	48 8b 55 f0          	mov    -0x10(%rbp),%rdx
    12cc:	48 89 d6             	mov    %rdx,%rsi
    12cf:	48 89 c7             	mov    %rax,%rdi
    12d2:	e8 8c a3 00 00       	callq  b663 <sgx_init_crypto_lib>
    12d7:	85 c0                	test   %eax,%eax
    12d9:	0f 95 c0             	setne  %al
    12dc:	84 c0                	test   %al,%al
    12de:	74 07                	je     12e7 <init_optimized_libs+0x97>
    {
        return -1;
    12e0:	b8 ff ff ff ff       	mov    $0xffffffff,%eax
    12e5:	eb 05                	jmp    12ec <init_optimized_libs+0x9c>
    }

    return 0;
    12e7:	b8 00 00 00 00       	mov    $0x0,%eax
}
    12ec:	c9                   	leaveq 
    12ed:	c3                   	retq   

00000000000012ee <trts_access_version_dummy1>:

#ifndef SE_SIM

#include "se_cdefs.h"
// add a version to trts
SGX_ACCESS_VERSION(trts, 1);
    12ee:	55                   	push   %rbp
    12ef:	48 89 e5             	mov    %rsp,%rbp
    12f2:	48 8d 05 17 fd 00 00 	lea    0xfd17(%rip),%rax        # 11010 <sgx_trts_version>
    12f9:	c6 00 73             	movb   $0x73,(%rax)
    12fc:	48 8d 05 0d fd 00 00 	lea    0xfd0d(%rip),%rax        # 11010 <sgx_trts_version>
    1303:	5d                   	pop    %rbp
    1304:	c3                   	retq   

0000000000001305 <sgx_is_within_enclave>:
//      1 - the buffer is strictly within the enclave
//      0 - the whole buffer or part of the buffer is not within the enclave,
//          or the buffer is wrap around
//
int sgx_is_within_enclave(const void *addr, size_t size)
{
    1305:	55                   	push   %rbp
    1306:	48 89 e5             	mov    %rsp,%rbp
    1309:	48 89 7d d8          	mov    %rdi,-0x28(%rbp)
    130d:	48 89 75 d0          	mov    %rsi,-0x30(%rbp)
    size_t start = reinterpret_cast<size_t>(addr);
    1311:	48 8b 45 d8          	mov    -0x28(%rbp),%rax
    1315:	48 89 45 e8          	mov    %rax,-0x18(%rbp)
    size_t end = 0;
    1319:	48 c7 45 e0 00 00 00 	movq   $0x0,-0x20(%rbp)
    1320:	00 
    size_t enclave_start = (size_t)&__ImageBase;
    1321:	48 8d 05 d8 ec ff ff 	lea    -0x1328(%rip),%rax        # 0 <enclave.so>
    1328:	48 89 45 f0          	mov    %rax,-0x10(%rbp)
    size_t enclave_end = enclave_start + g_global_data.enclave_size - 1;
    132c:	48 8d 05 4d be 00 00 	lea    0xbe4d(%rip),%rax        # d180 <g_global_data>
    1333:	48 8b 10             	mov    (%rax),%rdx
    1336:	48 8b 45 f0          	mov    -0x10(%rbp),%rax
    133a:	48 01 d0             	add    %rdx,%rax
    133d:	48 83 e8 01          	sub    $0x1,%rax
    1341:	48 89 45 f8          	mov    %rax,-0x8(%rbp)
    // g_global_data.enclave_end = enclave_base + enclave_size - 1;
    // so the enclave range is [enclave_start, enclave_end] inclusively

    if(size > 0)
    1345:	48 83 7d d0 00       	cmpq   $0x0,-0x30(%rbp)
    134a:	74 15                	je     1361 <sgx_is_within_enclave+0x5c>
    {
        end = start + size - 1;
    134c:	48 8b 55 e8          	mov    -0x18(%rbp),%rdx
    1350:	48 8b 45 d0          	mov    -0x30(%rbp),%rax
    1354:	48 01 d0             	add    %rdx,%rax
    1357:	48 83 e8 01          	sub    $0x1,%rax
    135b:	48 89 45 e0          	mov    %rax,-0x20(%rbp)
    135f:	eb 08                	jmp    1369 <sgx_is_within_enclave+0x64>
    }
    else
    {
        end = start;
    1361:	48 8b 45 e8          	mov    -0x18(%rbp),%rax
    1365:	48 89 45 e0          	mov    %rax,-0x20(%rbp)
    }
    if( (start <= end) && (start >= enclave_start) && (end <= enclave_end) )
    1369:	48 8b 45 e8          	mov    -0x18(%rbp),%rax
    136d:	48 3b 45 e0          	cmp    -0x20(%rbp),%rax
    1371:	77 1b                	ja     138e <sgx_is_within_enclave+0x89>
    1373:	48 8b 45 e8          	mov    -0x18(%rbp),%rax
    1377:	48 3b 45 f0          	cmp    -0x10(%rbp),%rax
    137b:	72 11                	jb     138e <sgx_is_within_enclave+0x89>
    137d:	48 8b 45 e0          	mov    -0x20(%rbp),%rax
    1381:	48 3b 45 f8          	cmp    -0x8(%rbp),%rax
    1385:	77 07                	ja     138e <sgx_is_within_enclave+0x89>
    {
        return 1;
    1387:	b8 01 00 00 00       	mov    $0x1,%eax
    138c:	eb 05                	jmp    1393 <sgx_is_within_enclave+0x8e>
    }
    return 0;
    138e:	b8 00 00 00 00       	mov    $0x0,%eax
}
    1393:	5d                   	pop    %rbp
    1394:	c3                   	retq   

0000000000001395 <sgx_is_outside_enclave>:
//      1 - the buffer is strictly outside the enclave
//      0 - the whole buffer or part of the buffer is not outside the enclave,
//          or the buffer is wrap around
//
int sgx_is_outside_enclave(const void *addr, size_t size)
{
    1395:	55                   	push   %rbp
    1396:	48 89 e5             	mov    %rsp,%rbp
    1399:	48 89 7d d8          	mov    %rdi,-0x28(%rbp)
    139d:	48 89 75 d0          	mov    %rsi,-0x30(%rbp)
    size_t start = reinterpret_cast<size_t>(addr);
    13a1:	48 8b 45 d8          	mov    -0x28(%rbp),%rax
    13a5:	48 89 45 e8          	mov    %rax,-0x18(%rbp)
    size_t end = 0;
    13a9:	48 c7 45 e0 00 00 00 	movq   $0x0,-0x20(%rbp)
    13b0:	00 
    size_t enclave_start = (size_t)&__ImageBase;
    13b1:	48 8d 05 48 ec ff ff 	lea    -0x13b8(%rip),%rax        # 0 <enclave.so>
    13b8:	48 89 45 f0          	mov    %rax,-0x10(%rbp)
    size_t enclave_end = enclave_start + g_global_data.enclave_size - 1;
    13bc:	48 8d 05 bd bd 00 00 	lea    0xbdbd(%rip),%rax        # d180 <g_global_data>
    13c3:	48 8b 10             	mov    (%rax),%rdx
    13c6:	48 8b 45 f0          	mov    -0x10(%rbp),%rax
    13ca:	48 01 d0             	add    %rdx,%rax
    13cd:	48 83 e8 01          	sub    $0x1,%rax
    13d1:	48 89 45 f8          	mov    %rax,-0x8(%rbp)
    // g_global_data.enclave_end = enclave_base + enclave_size - 1;
    // so the enclave range is [enclave_start, enclave_end] inclusively

    if(size > 0)
    13d5:	48 83 7d d0 00       	cmpq   $0x0,-0x30(%rbp)
    13da:	74 15                	je     13f1 <sgx_is_outside_enclave+0x5c>
    {
        end = start + size - 1;
    13dc:	48 8b 55 e8          	mov    -0x18(%rbp),%rdx
    13e0:	48 8b 45 d0          	mov    -0x30(%rbp),%rax
    13e4:	48 01 d0             	add    %rdx,%rax
    13e7:	48 83 e8 01          	sub    $0x1,%rax
    13eb:	48 89 45 e0          	mov    %rax,-0x20(%rbp)
    13ef:	eb 08                	jmp    13f9 <sgx_is_outside_enclave+0x64>
    }
    else
    {
        end = start;
    13f1:	48 8b 45 e8          	mov    -0x18(%rbp),%rax
    13f5:	48 89 45 e0          	mov    %rax,-0x20(%rbp)
    }
    if( (start <= end) && ((end < enclave_start) || (start > enclave_end)) )
    13f9:	48 8b 45 e8          	mov    -0x18(%rbp),%rax
    13fd:	48 3b 45 e0          	cmp    -0x20(%rbp),%rax
    1401:	77 1b                	ja     141e <sgx_is_outside_enclave+0x89>
    1403:	48 8b 45 e0          	mov    -0x20(%rbp),%rax
    1407:	48 3b 45 f0          	cmp    -0x10(%rbp),%rax
    140b:	72 0a                	jb     1417 <sgx_is_outside_enclave+0x82>
    140d:	48 8b 45 e8          	mov    -0x18(%rbp),%rax
    1411:	48 3b 45 f8          	cmp    -0x8(%rbp),%rax
    1415:	76 07                	jbe    141e <sgx_is_outside_enclave+0x89>
    {
        return 1;
    1417:	b8 01 00 00 00       	mov    $0x1,%eax
    141c:	eb 05                	jmp    1423 <sgx_is_outside_enclave+0x8e>
    }
    return 0;
    141e:	b8 00 00 00 00       	mov    $0x0,%eax
}
    1423:	5d                   	pop    %rbp
    1424:	c3                   	retq   

0000000000001425 <sgx_ocalloc>:
// When ECALL or exception handling returns, the stack pointer is set as the value in the ECALL stack frame and then EEXIT,
// so the outside stack is automatically unwind.
// In addition, sgx_ocalloc needs perform outside stack probe to make sure it is not allocating beyond the end of the stack.
#define OC_ROUND 16
void * sgx_ocalloc(size_t size)
{
    1425:	55                   	push   %rbp
    1426:	48 89 e5             	mov    %rsp,%rbp
    1429:	48 83 ec 40          	sub    $0x40,%rsp
    142d:	48 89 7d c8          	mov    %rdi,-0x38(%rbp)
    // read the outside stack address from current SSA
    thread_data_t *thread_data = get_thread_data();
    1431:	e8 69 b2 00 00       	callq  c69f <get_thread_data>
    1436:	48 89 45 d8          	mov    %rax,-0x28(%rbp)
    ssa_gpr_t *ssa_gpr = reinterpret_cast<ssa_gpr_t *>(thread_data->first_ssa_gpr);
    143a:	48 8b 45 d8          	mov    -0x28(%rbp),%rax
    143e:	48 8b 40 20          	mov    0x20(%rax),%rax
    1442:	48 89 45 e0          	mov    %rax,-0x20(%rbp)
    size_t addr = ssa_gpr->REG(sp_u);
    1446:	48 8b 45 e0          	mov    -0x20(%rbp),%rax
    144a:	48 8b 80 90 00 00 00 	mov    0x90(%rax),%rax
    1451:	48 89 45 e8          	mov    %rax,-0x18(%rbp)

    // check u_rsp points to the untrusted address.
    // if the check fails, it should be hacked. call abort directly
    if(!sgx_is_outside_enclave(reinterpret_cast<void *>(addr), sizeof(size_t)))
    1455:	48 8b 45 e8          	mov    -0x18(%rbp),%rax
    1459:	be 08 00 00 00       	mov    $0x8,%esi
    145e:	48 89 c7             	mov    %rax,%rdi
    1461:	e8 2f ff ff ff       	callq  1395 <sgx_is_outside_enclave>
    1466:	85 c0                	test   %eax,%eax
    1468:	0f 94 c0             	sete   %al
    146b:	84 c0                	test   %al,%al
    146d:	74 05                	je     1474 <sgx_ocalloc+0x4f>
    {
        abort();
    146f:	e8 5a b5 00 00       	callq  c9ce <abort>
    }

    // size is too large to allocate. call abort() directly.
    if(addr < size)
    1474:	48 8b 45 e8          	mov    -0x18(%rbp),%rax
    1478:	48 3b 45 c8          	cmp    -0x38(%rbp),%rax
    147c:	73 05                	jae    1483 <sgx_ocalloc+0x5e>
    {
        abort();
    147e:	e8 4b b5 00 00       	callq  c9ce <abort>
    }

    // calculate the start address for the allocated memory
    addr -= size;
    1483:	48 8b 45 c8          	mov    -0x38(%rbp),%rax
    1487:	48 29 45 e8          	sub    %rax,-0x18(%rbp)
    addr &= ~(static_cast<size_t>(OC_ROUND - 1));  // for stack alignment
    148b:	48 83 65 e8 f0       	andq   $0xfffffffffffffff0,-0x18(%rbp)

    // the allocated memory has overlap with enclave, abort the enclave
    if(!sgx_is_outside_enclave(reinterpret_cast<void *>(addr), size))
    1490:	48 8b 45 e8          	mov    -0x18(%rbp),%rax
    1494:	48 8b 55 c8          	mov    -0x38(%rbp),%rdx
    1498:	48 89 d6             	mov    %rdx,%rsi
    149b:	48 89 c7             	mov    %rax,%rdi
    149e:	e8 f2 fe ff ff       	callq  1395 <sgx_is_outside_enclave>
    14a3:	85 c0                	test   %eax,%eax
    14a5:	0f 94 c0             	sete   %al
    14a8:	84 c0                	test   %al,%al
    14aa:	74 05                	je     14b1 <sgx_ocalloc+0x8c>
    {
        abort();
    14ac:	e8 1d b5 00 00       	callq  c9ce <abort>

    // probe the outside stack to ensure that we do not skip over the stack3 guard page
    // we need to probe all the pages including the first page and the last page
    // the first page need to be probed in case uRTS didnot touch that page before EENTER enclave
    // the last page need to be probed in case the enclave didnot touch that page before another OCALLOC
    size_t first_page = TRIM_TO_PAGE(ssa_gpr->REG(sp_u) - 1);
    14b1:	48 8b 45 e0          	mov    -0x20(%rbp),%rax
    14b5:	48 8b 80 90 00 00 00 	mov    0x90(%rax),%rax
    14bc:	48 83 e8 01          	sub    $0x1,%rax
    14c0:	48 25 00 f0 ff ff    	and    $0xfffffffffffff000,%rax
    14c6:	48 89 45 f0          	mov    %rax,-0x10(%rbp)
    size_t last_page = TRIM_TO_PAGE(addr);
    14ca:	48 8b 45 e8          	mov    -0x18(%rbp),%rax
    14ce:	48 25 00 f0 ff ff    	and    $0xfffffffffffff000,%rax
    14d4:	48 89 45 f8          	mov    %rax,-0x8(%rbp)

    // To avoid the dead-loop in the following for(...) loop.
    // Attacker might fake a stack address that is within address 0x4095.
    if (last_page == 0)
    14d8:	48 83 7d f8 00       	cmpq   $0x0,-0x8(%rbp)
    14dd:	75 05                	jne    14e4 <sgx_ocalloc+0xbf>
    {
        abort();
    14df:	e8 ea b4 00 00       	callq  c9ce <abort>
    }

    // the compiler may optimize the following code to probe the pages in any order
    // while we only expect the probe order should be from higher addr to lower addr
    // so use volatile to avoid optimization by the compiler
    for(volatile size_t page = first_page; page >= last_page; page -= SE_PAGE_SIZE)
    14e4:	48 8b 45 f0          	mov    -0x10(%rbp),%rax
    14e8:	48 89 45 d0          	mov    %rax,-0x30(%rbp)
    14ec:	48 8b 45 d0          	mov    -0x30(%rbp),%rax
    14f0:	48 39 45 f8          	cmp    %rax,-0x8(%rbp)
    14f4:	0f 96 c0             	setbe  %al
    14f7:	84 c0                	test   %al,%al
    14f9:	74 26                	je     1521 <sgx_ocalloc+0xfc>
    {
        // OS may refuse to commit a physical page if the page fault address is smaller than RSP
        // So update the outside stack address before probe the page
        ssa_gpr->REG(sp_u) = page;
    14fb:	48 8b 55 d0          	mov    -0x30(%rbp),%rdx
    14ff:	48 8b 45 e0          	mov    -0x20(%rbp),%rax
    1503:	48 89 90 90 00 00 00 	mov    %rdx,0x90(%rax)

        *reinterpret_cast<uint8_t *>(page) = 0;
    150a:	48 8b 45 d0          	mov    -0x30(%rbp),%rax
    150e:	c6 00 00             	movb   $0x0,(%rax)
    for(volatile size_t page = first_page; page >= last_page; page -= SE_PAGE_SIZE)
    1511:	48 8b 45 d0          	mov    -0x30(%rbp),%rax
    1515:	48 2d 00 10 00 00    	sub    $0x1000,%rax
    151b:	48 89 45 d0          	mov    %rax,-0x30(%rbp)
    151f:	eb cb                	jmp    14ec <sgx_ocalloc+0xc7>
    }

    // update the outside stack address in the SSA to the allocated address
    ssa_gpr->REG(sp_u) = addr;
    1521:	48 8b 45 e0          	mov    -0x20(%rbp),%rax
    1525:	48 8b 55 e8          	mov    -0x18(%rbp),%rdx
    1529:	48 89 90 90 00 00 00 	mov    %rdx,0x90(%rax)

    return reinterpret_cast<void *>(addr);
    1530:	48 8b 45 e8          	mov    -0x18(%rbp),%rax
}
    1534:	c9                   	leaveq 
    1535:	c3                   	retq   

0000000000001536 <sgx_ocfree>:
// Return Value:
//      N/A
// sgx_ocfree restores the original outside stack pointer in the SSA.
// Do not call this function if you still need the buffer allocated by sgx_ocalloc within the ECALL.
void sgx_ocfree()
{
    1536:	55                   	push   %rbp
    1537:	48 89 e5             	mov    %rsp,%rbp
    153a:	48 83 ec 20          	sub    $0x20,%rsp
    //                       -------------
    //                      | ret_addr    |
    //                      | xbp_u       |
    //                      | xsp_u       |

    thread_data_t *thread_data = get_thread_data();
    153e:	e8 5c b1 00 00       	callq  c69f <get_thread_data>
    1543:	48 89 45 e0          	mov    %rax,-0x20(%rbp)
    ssa_gpr_t *ssa_gpr = reinterpret_cast<ssa_gpr_t *>(thread_data->first_ssa_gpr);
    1547:	48 8b 45 e0          	mov    -0x20(%rbp),%rax
    154b:	48 8b 40 20          	mov    0x20(%rax),%rax
    154f:	48 89 45 e8          	mov    %rax,-0x18(%rbp)
    uintptr_t *addr = reinterpret_cast<uintptr_t *>(thread_data->last_sp);
    1553:	48 8b 45 e0          	mov    -0x20(%rbp),%rax
    1557:	48 8b 40 08          	mov    0x8(%rax),%rax
    155b:	48 89 45 f0          	mov    %rax,-0x10(%rbp)
    uintptr_t usp = *(addr - 3);
    155f:	48 8b 45 f0          	mov    -0x10(%rbp),%rax
    1563:	48 8b 40 e8          	mov    -0x18(%rax),%rax
    1567:	48 89 45 f8          	mov    %rax,-0x8(%rbp)
    if(!sgx_is_outside_enclave(reinterpret_cast<void *>(usp), sizeof(uintptr_t)))
    156b:	48 8b 45 f8          	mov    -0x8(%rbp),%rax
    156f:	be 08 00 00 00       	mov    $0x8,%esi
    1574:	48 89 c7             	mov    %rax,%rdi
    1577:	e8 19 fe ff ff       	callq  1395 <sgx_is_outside_enclave>
    157c:	85 c0                	test   %eax,%eax
    157e:	0f 94 c0             	sete   %al
    1581:	84 c0                	test   %al,%al
    1583:	74 05                	je     158a <sgx_ocfree+0x54>
    {
        abort();
    1585:	e8 44 b4 00 00       	callq  c9ce <abort>
    }
    ssa_gpr->REG(sp_u) = usp;
    158a:	48 8b 45 e8          	mov    -0x18(%rbp),%rax
    158e:	48 8b 55 f8          	mov    -0x8(%rbp),%rdx
    1592:	48 89 90 90 00 00 00 	mov    %rdx,0x90(%rax)
}
    1599:	90                   	nop
    159a:	c9                   	leaveq 
    159b:	c3                   	retq   

000000000000159c <_ZL15__do_get_rand32Pj>:
    return n;
}
#endif

static sgx_status_t  __do_get_rand32(uint32_t* rand_num)
{
    159c:	55                   	push   %rbp
    159d:	48 89 e5             	mov    %rsp,%rbp
    15a0:	48 83 ec 10          	sub    $0x10,%rsp
    15a4:	48 89 7d f8          	mov    %rdi,-0x8(%rbp)
#ifndef SE_SIM
    /* We expect the CPU has RDRAND support for HW mode. Otherwise, an exception will be thrown
    * do_rdrand() will try to call RDRAND for 10 times
    */
    if(0 == do_rdrand(rand_num))
    15a8:	48 8b 45 f8          	mov    -0x8(%rbp),%rax
    15ac:	48 89 c7             	mov    %rax,%rdi
    15af:	e8 fb b3 00 00       	callq  c9af <do_rdrand>
    15b4:	85 c0                	test   %eax,%eax
    15b6:	0f 94 c0             	sete   %al
    15b9:	84 c0                	test   %al,%al
    15bb:	74 07                	je     15c4 <_ZL15__do_get_rand32Pj+0x28>
        return SGX_ERROR_UNEXPECTED;
    15bd:	b8 01 00 00 00       	mov    $0x1,%eax
    15c2:	eb 05                	jmp    15c9 <_ZL15__do_get_rand32Pj+0x2d>
    {
        /*  use LCG in simulation mode */
        *rand_num = get_rand_lcg();
    }
#endif
    return SGX_SUCCESS;
    15c4:	b8 00 00 00 00       	mov    $0x0,%eax
}
    15c9:	c9                   	leaveq 
    15ca:	c3                   	retq   

00000000000015cb <sgx_read_rand>:

sgx_status_t sgx_read_rand(unsigned char *rand, size_t length_in_bytes)
{
    15cb:	55                   	push   %rbp
    15cc:	48 89 e5             	mov    %rsp,%rbp
    15cf:	48 83 ec 30          	sub    $0x30,%rsp
    15d3:	48 89 7d d8          	mov    %rdi,-0x28(%rbp)
    15d7:	48 89 75 d0          	mov    %rsi,-0x30(%rbp)
    15db:	64 48 8b 04 25 28 00 	mov    %fs:0x28,%rax
    15e2:	00 00 
    15e4:	48 89 45 f8          	mov    %rax,-0x8(%rbp)
    15e8:	31 c0                	xor    %eax,%eax
    // check parameters
    //
    // rand can be within or outside the enclave
    if(!rand || !length_in_bytes)
    15ea:	48 83 7d d8 00       	cmpq   $0x0,-0x28(%rbp)
    15ef:	74 07                	je     15f8 <sgx_read_rand+0x2d>
    15f1:	48 83 7d d0 00       	cmpq   $0x0,-0x30(%rbp)
    15f6:	75 0a                	jne    1602 <sgx_read_rand+0x37>
    {
        return SGX_ERROR_INVALID_PARAMETER;
    15f8:	b8 02 00 00 00       	mov    $0x2,%eax
    15fd:	e9 cc 00 00 00       	jmpq   16ce <sgx_read_rand+0x103>
    }
    if(!sgx_is_within_enclave(rand, length_in_bytes) && !sgx_is_outside_enclave(rand, length_in_bytes))
    1602:	48 8b 55 d0          	mov    -0x30(%rbp),%rdx
    1606:	48 8b 45 d8          	mov    -0x28(%rbp),%rax
    160a:	48 89 d6             	mov    %rdx,%rsi
    160d:	48 89 c7             	mov    %rax,%rdi
    1610:	e8 f0 fc ff ff       	callq  1305 <sgx_is_within_enclave>
    1615:	85 c0                	test   %eax,%eax
    1617:	75 1e                	jne    1637 <sgx_read_rand+0x6c>
    1619:	48 8b 55 d0          	mov    -0x30(%rbp),%rdx
    161d:	48 8b 45 d8          	mov    -0x28(%rbp),%rax
    1621:	48 89 d6             	mov    %rdx,%rsi
    1624:	48 89 c7             	mov    %rax,%rdi
    1627:	e8 69 fd ff ff       	callq  1395 <sgx_is_outside_enclave>
    162c:	85 c0                	test   %eax,%eax
    162e:	75 07                	jne    1637 <sgx_read_rand+0x6c>
    1630:	b8 01 00 00 00       	mov    $0x1,%eax
    1635:	eb 05                	jmp    163c <sgx_read_rand+0x71>
    1637:	b8 00 00 00 00       	mov    $0x0,%eax
    163c:	84 c0                	test   %al,%al
    163e:	74 0a                	je     164a <sgx_read_rand+0x7f>
    {
        return SGX_ERROR_INVALID_PARAMETER;
    1640:	b8 02 00 00 00       	mov    $0x2,%eax
    1645:	e9 84 00 00 00       	jmpq   16ce <sgx_read_rand+0x103>
    }
    // loop to rdrand
    uint32_t rand_num = 0;
    164a:	c7 45 e8 00 00 00 00 	movl   $0x0,-0x18(%rbp)
    while(length_in_bytes > 0)
    1651:	48 83 7d d0 00       	cmpq   $0x0,-0x30(%rbp)
    1656:	74 56                	je     16ae <sgx_read_rand+0xe3>
    {
        sgx_status_t status = __do_get_rand32(&rand_num);
    1658:	48 8d 45 e8          	lea    -0x18(%rbp),%rax
    165c:	48 89 c7             	mov    %rax,%rdi
    165f:	e8 38 ff ff ff       	callq  159c <_ZL15__do_get_rand32Pj>
    1664:	89 45 ec             	mov    %eax,-0x14(%rbp)
        if(status != SGX_SUCCESS)
    1667:	83 7d ec 00          	cmpl   $0x0,-0x14(%rbp)
    166b:	74 05                	je     1672 <sgx_read_rand+0xa7>
        {
            return status;
    166d:	8b 45 ec             	mov    -0x14(%rbp),%eax
    1670:	eb 5c                	jmp    16ce <sgx_read_rand+0x103>
        }

        size_t size = (length_in_bytes < sizeof(rand_num)) ? length_in_bytes : sizeof(rand_num);
    1672:	b8 04 00 00 00       	mov    $0x4,%eax
    1677:	48 83 7d d0 04       	cmpq   $0x4,-0x30(%rbp)
    167c:	48 0f 46 45 d0       	cmovbe -0x30(%rbp),%rax
    1681:	48 89 45 f0          	mov    %rax,-0x10(%rbp)
        memcpy(rand, &rand_num, size);
    1685:	48 8b 55 f0          	mov    -0x10(%rbp),%rdx
    1689:	48 8d 4d e8          	lea    -0x18(%rbp),%rcx
    168d:	48 8b 45 d8          	mov    -0x28(%rbp),%rax
    1691:	48 89 ce             	mov    %rcx,%rsi
    1694:	48 89 c7             	mov    %rax,%rdi
    1697:	e8 96 98 00 00       	callq  af32 <memcpy>

        rand += size;
    169c:	48 8b 45 f0          	mov    -0x10(%rbp),%rax
    16a0:	48 01 45 d8          	add    %rax,-0x28(%rbp)
        length_in_bytes -= size;
    16a4:	48 8b 45 f0          	mov    -0x10(%rbp),%rax
    16a8:	48 29 45 d0          	sub    %rax,-0x30(%rbp)
    while(length_in_bytes > 0)
    16ac:	eb a3                	jmp    1651 <sgx_read_rand+0x86>
    }
    memset_s(&rand_num, sizeof(rand_num), 0, sizeof(rand_num));
    16ae:	48 8d 45 e8          	lea    -0x18(%rbp),%rax
    16b2:	b9 04 00 00 00       	mov    $0x4,%ecx
    16b7:	ba 00 00 00 00       	mov    $0x0,%edx
    16bc:	be 04 00 00 00       	mov    $0x4,%esi
    16c1:	48 89 c7             	mov    %rax,%rdi
    16c4:	e8 01 99 00 00       	callq  afca <memset_s>
    return SGX_SUCCESS;
    16c9:	b8 00 00 00 00       	mov    $0x0,%eax
}
    16ce:	48 8b 4d f8          	mov    -0x8(%rbp),%rcx
    16d2:	64 48 33 0c 25 28 00 	xor    %fs:0x28,%rcx
    16d9:	00 00 
    16db:	74 05                	je     16e2 <sgx_read_rand+0x117>
    16dd:	e8 f8 3b 00 00       	callq  52da <__stack_chk_fail>
    16e2:	c9                   	leaveq 
    16e3:	c3                   	retq   

00000000000016e4 <check_static_stack_canary>:
    return get_enclave_state() == ENCLAVE_CRASHED;
}

extern uintptr_t __stack_chk_guard;
int check_static_stack_canary(void *tcs)
{
    16e4:	55                   	push   %rbp
    16e5:	48 89 e5             	mov    %rsp,%rbp
    16e8:	48 89 7d e8          	mov    %rdi,-0x18(%rbp)
    size_t *canary = TCS2CANARY(tcs);
    16ec:	48 8b 45 e8          	mov    -0x18(%rbp),%rax
    16f0:	48 2d a8 02 01 00    	sub    $0x102a8,%rax
    16f6:	48 89 45 f8          	mov    %rax,-0x8(%rbp)
    if ( *canary != (size_t)__stack_chk_guard)
    16fa:	48 8b 45 f8          	mov    -0x8(%rbp),%rax
    16fe:	48 8b 10             	mov    (%rax),%rdx
    1701:	48 8d 05 f8 f6 00 00 	lea    0xf6f8(%rip),%rax        # 10e00 <__intel_security_cookie>
    1708:	48 8b 00             	mov    (%rax),%rax
    170b:	48 39 c2             	cmp    %rax,%rdx
    170e:	74 07                	je     1717 <check_static_stack_canary+0x33>
    {
        return -1;
    1710:	b8 ff ff ff ff       	mov    $0xffffffff,%eax
    1715:	eb 05                	jmp    171c <check_static_stack_canary+0x38>
    }
    return 0;
    1717:	b8 00 00 00 00       	mov    $0x0,%eax
}
    171c:	5d                   	pop    %rbp
    171d:	c3                   	retq   

000000000000171e <memcpy_s>:
#ifdef __cplusplus
    extern "C" {
#endif

static inline errno_t memcpy_s(void *dest, size_t numberOfElements, const void *src, size_t count)
{
    171e:	55                   	push   %rbp
    171f:	48 89 e5             	mov    %rsp,%rbp
    1722:	48 83 ec 20          	sub    $0x20,%rsp
    1726:	48 89 7d f8          	mov    %rdi,-0x8(%rbp)
    172a:	48 89 75 f0          	mov    %rsi,-0x10(%rbp)
    172e:	48 89 55 e8          	mov    %rdx,-0x18(%rbp)
    1732:	48 89 4d e0          	mov    %rcx,-0x20(%rbp)
    if(numberOfElements<count)
    1736:	48 8b 45 f0          	mov    -0x10(%rbp),%rax
    173a:	48 3b 45 e0          	cmp    -0x20(%rbp),%rax
    173e:	73 07                	jae    1747 <memcpy_s+0x29>
        return -1;
    1740:	b8 ff ff ff ff       	mov    $0xffffffff,%eax
    1745:	eb 1c                	jmp    1763 <memcpy_s+0x45>
    memcpy(dest, src, count);
    1747:	48 8b 55 e0          	mov    -0x20(%rbp),%rdx
    174b:	48 8b 4d e8          	mov    -0x18(%rbp),%rcx
    174f:	48 8b 45 f8          	mov    -0x8(%rbp),%rax
    1753:	48 89 ce             	mov    %rcx,%rsi
    1756:	48 89 c7             	mov    %rax,%rdi
    1759:	e8 d4 97 00 00       	callq  af32 <memcpy>
    return 0;
    175e:	b8 00 00 00 00       	mov    $0x0,%eax
}
    1763:	c9                   	leaveq 
    1764:	c3                   	retq   

0000000000001765 <_ZL19sgx_accept_backwardmmm>:
    uint16_t    attributes;
};

// Low level API to EACCEPT pages on grow-up region.
static int sgx_accept_backward(si_flags_t sfl, size_t lo, size_t hi)
{
    1765:	4c 8d 54 24 08       	lea    0x8(%rsp),%r10
    176a:	48 83 e4 c0          	and    $0xffffffffffffffc0,%rsp
    176e:	41 ff 72 f8          	pushq  -0x8(%r10)
    1772:	55                   	push   %rbp
    1773:	48 89 e5             	mov    %rsp,%rbp
    1776:	41 52                	push   %r10
    1778:	48 81 ec e8 00 00 00 	sub    $0xe8,%rsp
    177f:	48 89 bd 38 ff ff ff 	mov    %rdi,-0xc8(%rbp)
    1786:	48 89 b5 30 ff ff ff 	mov    %rsi,-0xd0(%rbp)
    178d:	48 89 95 28 ff ff ff 	mov    %rdx,-0xd8(%rbp)
    1794:	64 48 8b 04 25 28 00 	mov    %fs:0x28,%rax
    179b:	00 00 
    179d:	48 89 45 c8          	mov    %rax,-0x38(%rbp)
    17a1:	31 c0                	xor    %eax,%eax
    size_t addr = hi;
    17a3:	48 8b 85 28 ff ff ff 	mov    -0xd8(%rbp),%rax
    17aa:	48 89 85 48 ff ff ff 	mov    %rax,-0xb8(%rbp)
    SE_DECLSPEC_ALIGN(sizeof(sec_info_t)) sec_info_t si;
    si.flags = sfl;
    17b1:	48 8b 85 38 ff ff ff 	mov    -0xc8(%rbp),%rax
    17b8:	48 89 85 50 ff ff ff 	mov    %rax,-0xb0(%rbp)
    for (uint16_t i = 0; i < (sizeof(si.reserved)/sizeof(si.reserved[0])); i++)
    17bf:	66 c7 85 42 ff ff ff 	movw   $0x0,-0xbe(%rbp)
    17c6:	00 00 
    17c8:	66 83 bd 42 ff ff ff 	cmpw   $0x6,-0xbe(%rbp)
    17cf:	06 
    17d0:	77 28                	ja     17fa <_ZL19sgx_accept_backwardmmm+0x95>
        si.reserved[i] = 0;
    17d2:	0f b7 85 42 ff ff ff 	movzwl -0xbe(%rbp),%eax
    17d9:	48 98                	cltq   
    17db:	48 c7 84 c5 58 ff ff 	movq   $0x0,-0xa8(%rbp,%rax,8)
    17e2:	ff 00 00 00 00 
    for (uint16_t i = 0; i < (sizeof(si.reserved)/sizeof(si.reserved[0])); i++)
    17e7:	0f b7 85 42 ff ff ff 	movzwl -0xbe(%rbp),%eax
    17ee:	83 c0 01             	add    $0x1,%eax
    17f1:	66 89 85 42 ff ff ff 	mov    %ax,-0xbe(%rbp)
    17f8:	eb ce                	jmp    17c8 <_ZL19sgx_accept_backwardmmm+0x63>

    while (lo < addr)
    17fa:	48 8b 85 30 ff ff ff 	mov    -0xd0(%rbp),%rax
    1801:	48 3b 85 48 ff ff ff 	cmp    -0xb8(%rbp),%rax
    1808:	73 38                	jae    1842 <_ZL19sgx_accept_backwardmmm+0xdd>
    {
        int rc = do_eaccept(&si, addr -= SE_PAGE_SIZE);
    180a:	48 81 ad 48 ff ff ff 	subq   $0x1000,-0xb8(%rbp)
    1811:	00 10 00 00 
    1815:	48 8b 95 48 ff ff ff 	mov    -0xb8(%rbp),%rdx
    181c:	48 8d 85 50 ff ff ff 	lea    -0xb0(%rbp),%rax
    1823:	48 89 d6             	mov    %rdx,%rsi
    1826:	48 89 c7             	mov    %rax,%rdi
    1829:	e8 52 b1 00 00       	callq  c980 <do_eaccept>
    182e:	89 85 44 ff ff ff    	mov    %eax,-0xbc(%rbp)
        if (rc != 0)
    1834:	83 bd 44 ff ff ff 00 	cmpl   $0x0,-0xbc(%rbp)
    183b:	74 bd                	je     17fa <_ZL19sgx_accept_backwardmmm+0x95>
            abort();
    183d:	e8 8c b1 00 00       	callq  c9ce <abort>
    }
    return 0;
    1842:	b8 00 00 00 00       	mov    $0x0,%eax
}
    1847:	48 8b 4d c8          	mov    -0x38(%rbp),%rcx
    184b:	64 48 33 0c 25 28 00 	xor    %fs:0x28,%rcx
    1852:	00 00 
    1854:	74 05                	je     185b <_ZL19sgx_accept_backwardmmm+0xf6>
    1856:	e8 7f 3a 00 00       	callq  52da <__stack_chk_fail>
    185b:	48 81 c4 e8 00 00 00 	add    $0xe8,%rsp
    1862:	41 5a                	pop    %r10
    1864:	5d                   	pop    %rbp
    1865:	49 8d 62 f8          	lea    -0x8(%r10),%rsp
    1869:	c3                   	retq   

000000000000186a <_ZL35sgx_accept_forward_within_exceptionmm>:

// Low level API to EACCEPT pages on grow-up region during exception handling.
static int sgx_accept_forward_within_exception(size_t lo, size_t hi)
{
    186a:	4c 8d 54 24 08       	lea    0x8(%rsp),%r10
    186f:	48 83 e4 c0          	and    $0xffffffffffffffc0,%rsp
    1873:	41 ff 72 f8          	pushq  -0x8(%r10)
    1877:	55                   	push   %rbp
    1878:	48 89 e5             	mov    %rsp,%rbp
    187b:	41 52                	push   %r10
    187d:	48 81 ec e8 00 00 00 	sub    $0xe8,%rsp
    1884:	48 89 bd 28 ff ff ff 	mov    %rdi,-0xd8(%rbp)
    188b:	48 89 b5 20 ff ff ff 	mov    %rsi,-0xe0(%rbp)
    1892:	64 48 8b 04 25 28 00 	mov    %fs:0x28,%rax
    1899:	00 00 
    189b:	48 89 45 c8          	mov    %rax,-0x38(%rbp)
    189f:	31 c0                	xor    %eax,%eax
    size_t addr = lo;
    18a1:	48 8b 85 28 ff ff ff 	mov    -0xd8(%rbp),%rax
    18a8:	48 89 85 48 ff ff ff 	mov    %rax,-0xb8(%rbp)
    SE_DECLSPEC_ALIGN(sizeof(sec_info_t)) sec_info_t si;

#ifdef DEBUG
    unsigned int sp_value = 0;
    18af:	c7 85 40 ff ff ff 00 	movl   $0x0,-0xc0(%rbp)
    18b6:	00 00 00 
    asm("mov %%esp, %0;" : "=r" (sp_value) :);
    18b9:	89 e0                	mov    %esp,%eax
    18bb:	89 85 40 ff ff ff    	mov    %eax,-0xc0(%rbp)
    if ((sp_value & (SE_PAGE_SIZE -1)) <= (SE_PAGE_SIZE - (STATIC_STACK_SIZE % SE_PAGE_SIZE)))
    18c1:	8b 85 40 ff ff ff    	mov    -0xc0(%rbp),%eax
    18c7:	25 ff 0f 00 00       	and    $0xfff,%eax
    18cc:	3d 50 0d 00 00       	cmp    $0xd50,%eax
    18d1:	77 0a                	ja     18dd <_ZL35sgx_accept_forward_within_exceptionmm+0x73>
        return SGX_ERROR_UNEXPECTED;
    18d3:	b8 01 00 00 00       	mov    $0x1,%eax
    18d8:	e9 95 00 00 00       	jmpq   1972 <_ZL35sgx_accept_forward_within_exceptionmm+0x108>
#endif

    si.flags = SI_FLAGS_RW | SI_FLAG_PENDING;
    18dd:	48 c7 85 50 ff ff ff 	movq   $0x20b,-0xb0(%rbp)
    18e4:	0b 02 00 00 
    for (uint16_t i = 0; i < (sizeof(si.reserved)/sizeof(si.reserved[0])); i++)
    18e8:	66 c7 85 3e ff ff ff 	movw   $0x0,-0xc2(%rbp)
    18ef:	00 00 
    18f1:	66 83 bd 3e ff ff ff 	cmpw   $0x6,-0xc2(%rbp)
    18f8:	06 
    18f9:	77 28                	ja     1923 <_ZL35sgx_accept_forward_within_exceptionmm+0xb9>
        si.reserved[i] = 0;
    18fb:	0f b7 85 3e ff ff ff 	movzwl -0xc2(%rbp),%eax
    1902:	48 98                	cltq   
    1904:	48 c7 84 c5 58 ff ff 	movq   $0x0,-0xa8(%rbp,%rax,8)
    190b:	ff 00 00 00 00 
    for (uint16_t i = 0; i < (sizeof(si.reserved)/sizeof(si.reserved[0])); i++)
    1910:	0f b7 85 3e ff ff ff 	movzwl -0xc2(%rbp),%eax
    1917:	83 c0 01             	add    $0x1,%eax
    191a:	66 89 85 3e ff ff ff 	mov    %ax,-0xc2(%rbp)
    1921:	eb ce                	jmp    18f1 <_ZL35sgx_accept_forward_within_exceptionmm+0x87>

    while (addr < hi)
    1923:	48 8b 85 48 ff ff ff 	mov    -0xb8(%rbp),%rax
    192a:	48 3b 85 20 ff ff ff 	cmp    -0xe0(%rbp),%rax
    1931:	73 3a                	jae    196d <_ZL35sgx_accept_forward_within_exceptionmm+0x103>
    {
        int rc = do_eaccept(&si, addr);
    1933:	48 8b 95 48 ff ff ff 	mov    -0xb8(%rbp),%rdx
    193a:	48 8d 85 50 ff ff ff 	lea    -0xb0(%rbp),%rax
    1941:	48 89 d6             	mov    %rdx,%rsi
    1944:	48 89 c7             	mov    %rax,%rdi
    1947:	e8 34 b0 00 00       	callq  c980 <do_eaccept>
    194c:	89 85 44 ff ff ff    	mov    %eax,-0xbc(%rbp)
        if (rc != 0)
    1952:	83 bd 44 ff ff ff 00 	cmpl   $0x0,-0xbc(%rbp)
    1959:	74 05                	je     1960 <_ZL35sgx_accept_forward_within_exceptionmm+0xf6>
            abort();
    195b:	e8 6e b0 00 00       	callq  c9ce <abort>
        addr += SE_PAGE_SIZE;
    1960:	48 81 85 48 ff ff ff 	addq   $0x1000,-0xb8(%rbp)
    1967:	00 10 00 00 
    while (addr < hi)
    196b:	eb b6                	jmp    1923 <_ZL35sgx_accept_forward_within_exceptionmm+0xb9>
    }

    return 0;
    196d:	b8 00 00 00 00       	mov    $0x0,%eax
}
    1972:	48 8b 4d c8          	mov    -0x38(%rbp),%rcx
    1976:	64 48 33 0c 25 28 00 	xor    %fs:0x28,%rcx
    197d:	00 00 
    197f:	74 05                	je     1986 <_ZL35sgx_accept_forward_within_exceptionmm+0x11c>
    1981:	e8 54 39 00 00       	callq  52da <__stack_chk_fail>
    1986:	48 81 c4 e8 00 00 00 	add    $0xe8,%rsp
    198d:	41 5a                	pop    %r10
    198f:	5d                   	pop    %rbp
    1990:	49 8d 62 f8          	lea    -0x8(%r10),%rsp
    1994:	c3                   	retq   

0000000000001995 <_Z24get_dynamic_layout_by_idt>:

const volatile layout_t *get_dynamic_layout_by_id(uint16_t id)
{
    1995:	55                   	push   %rbp
    1996:	48 89 e5             	mov    %rsp,%rbp
    1999:	89 f8                	mov    %edi,%eax
    199b:	66 89 45 ec          	mov    %ax,-0x14(%rbp)
    for(uint32_t i = 0; i < g_global_data.layout_entry_num; i++)
    199f:	c7 45 fc 00 00 00 00 	movl   $0x0,-0x4(%rbp)
    19a6:	48 8d 05 d3 b7 00 00 	lea    0xb7d3(%rip),%rax        # d180 <g_global_data>
    19ad:	8b 80 28 01 00 00    	mov    0x128(%rax),%eax
    19b3:	39 45 fc             	cmp    %eax,-0x4(%rbp)
    19b6:	0f 92 c0             	setb   %al
    19b9:	84 c0                	test   %al,%al
    19bb:	74 45                	je     1a02 <_Z24get_dynamic_layout_by_idt+0x6d>
    {
        if(g_global_data.layout_table[i].entry.id == id)
    19bd:	48 8d 05 bc b7 00 00 	lea    0xb7bc(%rip),%rax        # d180 <g_global_data>
    19c4:	8b 55 fc             	mov    -0x4(%rbp),%edx
    19c7:	48 c1 e2 05          	shl    $0x5,%rdx
    19cb:	48 01 d0             	add    %rdx,%rax
    19ce:	48 05 30 01 00 00    	add    $0x130,%rax
    19d4:	0f b7 00             	movzwl (%rax),%eax
    19d7:	66 39 45 ec          	cmp    %ax,-0x14(%rbp)
    19db:	0f 94 c0             	sete   %al
    19de:	84 c0                	test   %al,%al
    19e0:	74 1a                	je     19fc <_Z24get_dynamic_layout_by_idt+0x67>
        {
            return &(g_global_data.layout_table[i]);
    19e2:	8b 45 fc             	mov    -0x4(%rbp),%eax
    19e5:	48 c1 e0 05          	shl    $0x5,%rax
    19e9:	48 8d 90 30 01 00 00 	lea    0x130(%rax),%rdx
    19f0:	48 8d 05 89 b7 00 00 	lea    0xb789(%rip),%rax        # d180 <g_global_data>
    19f7:	48 01 d0             	add    %rdx,%rax
    19fa:	eb 0b                	jmp    1a07 <_Z24get_dynamic_layout_by_idt+0x72>
    for(uint32_t i = 0; i < g_global_data.layout_entry_num; i++)
    19fc:	83 45 fc 01          	addl   $0x1,-0x4(%rbp)
    1a00:	eb a4                	jmp    19a6 <_Z24get_dynamic_layout_by_idt+0x11>
        }
    }
    return NULL;
    1a02:	b8 00 00 00 00       	mov    $0x0,%eax
}
    1a07:	5d                   	pop    %rbp
    1a08:	c3                   	retq   

0000000000001a09 <_Z18accept_post_removePVK9_layout_tS1_m>:

// EACCEPT trim requests when the enclave completes initialization.
int accept_post_remove(const volatile layout_t *layout_start, const volatile layout_t *layout_end, size_t offset)
{
    1a09:	55                   	push   %rbp
    1a0a:	48 89 e5             	mov    %rsp,%rbp
    1a0d:	53                   	push   %rbx
    1a0e:	48 83 ec 58          	sub    $0x58,%rsp
    1a12:	48 89 7d b8          	mov    %rdi,-0x48(%rbp)
    1a16:	48 89 75 b0          	mov    %rsi,-0x50(%rbp)
    1a1a:	48 89 55 a8          	mov    %rdx,-0x58(%rbp)
    int ret = -1;
    1a1e:	c7 45 d0 ff ff ff ff 	movl   $0xffffffff,-0x30(%rbp)
    for (const volatile layout_t *layout = layout_start; layout < layout_end; layout++)
    1a25:	48 8b 45 b8          	mov    -0x48(%rbp),%rax
    1a29:	48 89 45 d8          	mov    %rax,-0x28(%rbp)
    1a2d:	48 8b 45 d8          	mov    -0x28(%rbp),%rax
    1a31:	48 3b 45 b0          	cmp    -0x50(%rbp),%rax
    1a35:	0f 83 2f 01 00 00    	jae    1b6a <_Z18accept_post_removePVK9_layout_tS1_m+0x161>
    {
        if (!IS_GROUP_ID(layout->group.id) && (layout->entry.attributes & PAGE_ATTR_POST_REMOVE))
    1a3b:	48 8b 45 d8          	mov    -0x28(%rbp),%rax
    1a3f:	0f b7 00             	movzwl (%rax),%eax
    1a42:	0f b7 c0             	movzwl %ax,%eax
    1a45:	25 00 10 00 00       	and    $0x1000,%eax
    1a4a:	85 c0                	test   %eax,%eax
    1a4c:	75 19                	jne    1a67 <_Z18accept_post_removePVK9_layout_tS1_m+0x5e>
    1a4e:	48 8b 45 d8          	mov    -0x28(%rbp),%rax
    1a52:	0f b7 40 02          	movzwl 0x2(%rax),%eax
    1a56:	0f b7 c0             	movzwl %ax,%eax
    1a59:	83 e0 10             	and    $0x10,%eax
    1a5c:	85 c0                	test   %eax,%eax
    1a5e:	74 07                	je     1a67 <_Z18accept_post_removePVK9_layout_tS1_m+0x5e>
    1a60:	b8 01 00 00 00       	mov    $0x1,%eax
    1a65:	eb 05                	jmp    1a6c <_Z18accept_post_removePVK9_layout_tS1_m+0x63>
    1a67:	b8 00 00 00 00       	mov    $0x0,%eax
    1a6c:	84 c0                	test   %al,%al
    1a6e:	74 62                	je     1ad2 <_Z18accept_post_removePVK9_layout_tS1_m+0xc9>
        {
            size_t start_addr = (size_t)layout->entry.rva + offset + (size_t)get_enclave_base();
    1a70:	48 8b 45 d8          	mov    -0x28(%rbp),%rax
    1a74:	48 8b 50 08          	mov    0x8(%rax),%rdx
    1a78:	48 8b 45 a8          	mov    -0x58(%rbp),%rax
    1a7c:	48 8d 1c 02          	lea    (%rdx,%rax,1),%rbx
    1a80:	e8 df ab 00 00       	callq  c664 <get_enclave_base>
    1a85:	48 01 d8             	add    %rbx,%rax
    1a88:	48 89 45 e8          	mov    %rax,-0x18(%rbp)
            uint32_t page_count = layout->entry.page_count;
    1a8c:	48 8b 45 d8          	mov    -0x28(%rbp),%rax
    1a90:	8b 40 04             	mov    0x4(%rax),%eax
    1a93:	89 45 d4             	mov    %eax,-0x2c(%rbp)

            if (0 != (ret = sgx_accept_forward(SI_FLAG_TRIM | SI_FLAG_MODIFIED, start_addr, start_addr + ((size_t)page_count << SE_PAGE_SHIFT))))
    1a96:	8b 45 d4             	mov    -0x2c(%rbp),%eax
    1a99:	48 c1 e0 0c          	shl    $0xc,%rax
    1a9d:	48 89 c2             	mov    %rax,%rdx
    1aa0:	48 8b 45 e8          	mov    -0x18(%rbp),%rax
    1aa4:	48 01 c2             	add    %rax,%rdx
    1aa7:	48 8b 45 e8          	mov    -0x18(%rbp),%rax
    1aab:	48 89 c6             	mov    %rax,%rsi
    1aae:	bf 10 04 00 00       	mov    $0x410,%edi
    1ab3:	e8 ef 05 00 00       	callq  20a7 <sgx_accept_forward>
    1ab8:	89 45 d0             	mov    %eax,-0x30(%rbp)
    1abb:	83 7d d0 00          	cmpl   $0x0,-0x30(%rbp)
    1abf:	0f 95 c0             	setne  %al
    1ac2:	84 c0                	test   %al,%al
    1ac4:	0f 84 96 00 00 00    	je     1b60 <_Z18accept_post_removePVK9_layout_tS1_m+0x157>
                return ret;
    1aca:	8b 45 d0             	mov    -0x30(%rbp),%eax
    1acd:	e9 9d 00 00 00       	jmpq   1b6f <_Z18accept_post_removePVK9_layout_tS1_m+0x166>
        }
        else if (IS_GROUP_ID(layout->group.id))
    1ad2:	48 8b 45 d8          	mov    -0x28(%rbp),%rax
    1ad6:	0f b7 00             	movzwl (%rax),%eax
    1ad9:	0f b7 c0             	movzwl %ax,%eax
    1adc:	25 00 10 00 00       	and    $0x1000,%eax
    1ae1:	85 c0                	test   %eax,%eax
    1ae3:	0f 95 c0             	setne  %al
    1ae6:	84 c0                	test   %al,%al
    1ae8:	74 76                	je     1b60 <_Z18accept_post_removePVK9_layout_tS1_m+0x157>
        {
            size_t step = 0;
    1aea:	48 c7 45 e0 00 00 00 	movq   $0x0,-0x20(%rbp)
    1af1:	00 
            for(uint32_t j = 0; j < layout->group.load_times; j++)
    1af2:	c7 45 cc 00 00 00 00 	movl   $0x0,-0x34(%rbp)
    1af9:	48 8b 45 d8          	mov    -0x28(%rbp),%rax
    1afd:	8b 40 04             	mov    0x4(%rax),%eax
    1b00:	39 45 cc             	cmp    %eax,-0x34(%rbp)
    1b03:	0f 92 c0             	setb   %al
    1b06:	84 c0                	test   %al,%al
    1b08:	74 56                	je     1b60 <_Z18accept_post_removePVK9_layout_tS1_m+0x157>
            {
                step += (size_t)layout->group.load_step;
    1b0a:	48 8b 45 d8          	mov    -0x28(%rbp),%rax
    1b0e:	48 8b 40 08          	mov    0x8(%rax),%rax
    1b12:	48 01 45 e0          	add    %rax,-0x20(%rbp)
                if(0 != (ret = accept_post_remove(&layout[-layout->group.entry_count], layout, step)))
    1b16:	48 8b 45 d8          	mov    -0x28(%rbp),%rax
    1b1a:	0f b7 40 02          	movzwl 0x2(%rax),%eax
    1b1e:	0f b7 c0             	movzwl %ax,%eax
    1b21:	f7 d8                	neg    %eax
    1b23:	48 98                	cltq   
    1b25:	48 c1 e0 05          	shl    $0x5,%rax
    1b29:	48 89 c2             	mov    %rax,%rdx
    1b2c:	48 8b 45 d8          	mov    -0x28(%rbp),%rax
    1b30:	48 8d 0c 02          	lea    (%rdx,%rax,1),%rcx
    1b34:	48 8b 55 e0          	mov    -0x20(%rbp),%rdx
    1b38:	48 8b 45 d8          	mov    -0x28(%rbp),%rax
    1b3c:	48 89 c6             	mov    %rax,%rsi
    1b3f:	48 89 cf             	mov    %rcx,%rdi
    1b42:	e8 c2 fe ff ff       	callq  1a09 <_Z18accept_post_removePVK9_layout_tS1_m>
    1b47:	89 45 d0             	mov    %eax,-0x30(%rbp)
    1b4a:	83 7d d0 00          	cmpl   $0x0,-0x30(%rbp)
    1b4e:	0f 95 c0             	setne  %al
    1b51:	84 c0                	test   %al,%al
    1b53:	74 05                	je     1b5a <_Z18accept_post_removePVK9_layout_tS1_m+0x151>
                    return ret;
    1b55:	8b 45 d0             	mov    -0x30(%rbp),%eax
    1b58:	eb 15                	jmp    1b6f <_Z18accept_post_removePVK9_layout_tS1_m+0x166>
            for(uint32_t j = 0; j < layout->group.load_times; j++)
    1b5a:	83 45 cc 01          	addl   $0x1,-0x34(%rbp)
    1b5e:	eb 99                	jmp    1af9 <_Z18accept_post_removePVK9_layout_tS1_m+0xf0>
    for (const volatile layout_t *layout = layout_start; layout < layout_end; layout++)
    1b60:	48 83 45 d8 20       	addq   $0x20,-0x28(%rbp)
    1b65:	e9 c3 fe ff ff       	jmpq   1a2d <_Z18accept_post_removePVK9_layout_tS1_m+0x24>
            }
        }
    }
    return 0;
    1b6a:	b8 00 00 00 00       	mov    $0x0,%eax
}
    1b6f:	48 83 c4 58          	add    $0x58,%rsp
    1b73:	5b                   	pop    %rbx
    1b74:	5d                   	pop    %rbp
    1b75:	c3                   	retq   

0000000000001b76 <_ZL20check_heap_dyn_rangePvmP24dynamic_flags_attributes>:

static int check_heap_dyn_range(void *addr, size_t page_count, struct dynamic_flags_attributes *fa)
{
    1b76:	55                   	push   %rbp
    1b77:	48 89 e5             	mov    %rsp,%rbp
    1b7a:	53                   	push   %rbx
    1b7b:	48 83 ec 38          	sub    $0x38,%rsp
    1b7f:	48 89 7d d8          	mov    %rdi,-0x28(%rbp)
    1b83:	48 89 75 d0          	mov    %rsi,-0x30(%rbp)
    1b87:	48 89 55 c8          	mov    %rdx,-0x38(%rbp)
    size_t heap_dyn_start, heap_dyn_size;

    heap_dyn_start = (size_t)get_heap_base() + get_heap_min_size();
    1b8b:	e8 6a 1d 00 00       	callq  38fa <get_heap_base>
    1b90:	48 89 c3             	mov    %rax,%rbx
    1b93:	e8 0f 1e 00 00       	callq  39a7 <get_heap_min_size>
    1b98:	48 01 d8             	add    %rbx,%rax
    1b9b:	48 89 45 e0          	mov    %rax,-0x20(%rbp)
    heap_dyn_size = get_heap_size() - get_heap_min_size();
    1b9f:	e8 71 1d 00 00       	callq  3915 <get_heap_size>
    1ba4:	48 89 c3             	mov    %rax,%rbx
    1ba7:	e8 fb 1d 00 00       	callq  39a7 <get_heap_min_size>
    1bac:	48 29 c3             	sub    %rax,%rbx
    1baf:	48 89 d8             	mov    %rbx,%rax
    1bb2:	48 89 45 e8          	mov    %rax,-0x18(%rbp)

    if ((size_t)addr >= heap_dyn_start
    1bb6:	48 8b 45 d8          	mov    -0x28(%rbp),%rax
    1bba:	48 39 45 e0          	cmp    %rax,-0x20(%rbp)
    1bbe:	77 46                	ja     1c06 <_ZL20check_heap_dyn_rangePvmP24dynamic_flags_attributes+0x90>
            && (size_t)addr + (page_count << SE_PAGE_SHIFT) <= heap_dyn_start + heap_dyn_size)
    1bc0:	48 8b 45 d0          	mov    -0x30(%rbp),%rax
    1bc4:	48 c1 e0 0c          	shl    $0xc,%rax
    1bc8:	48 89 c2             	mov    %rax,%rdx
    1bcb:	48 8b 45 d8          	mov    -0x28(%rbp),%rax
    1bcf:	48 8d 0c 02          	lea    (%rdx,%rax,1),%rcx
    1bd3:	48 8b 55 e0          	mov    -0x20(%rbp),%rdx
    1bd7:	48 8b 45 e8          	mov    -0x18(%rbp),%rax
    1bdb:	48 01 d0             	add    %rdx,%rax
    1bde:	48 39 c1             	cmp    %rax,%rcx
    1be1:	77 23                	ja     1c06 <_ZL20check_heap_dyn_rangePvmP24dynamic_flags_attributes+0x90>
    {
        if (fa != NULL)
    1be3:	48 83 7d c8 00       	cmpq   $0x0,-0x38(%rbp)
    1be8:	74 15                	je     1bff <_ZL20check_heap_dyn_rangePvmP24dynamic_flags_attributes+0x89>
        {
            fa->si_flags = SI_FLAGS_RW;
    1bea:	48 8b 45 c8          	mov    -0x38(%rbp),%rax
    1bee:	48 c7 00 03 02 00 00 	movq   $0x203,(%rax)
            fa->attributes = PAGE_ATTR_POST_ADD;
    1bf5:	48 8b 45 c8          	mov    -0x38(%rbp),%rax
    1bf9:	66 c7 40 08 08 00    	movw   $0x8,0x8(%rax)
        }
        return 0;
    1bff:	b8 00 00 00 00       	mov    $0x0,%eax
    1c04:	eb 05                	jmp    1c0b <_ZL20check_heap_dyn_rangePvmP24dynamic_flags_attributes+0x95>
    }
    else
    {
        return -1;
    1c06:	b8 ff ff ff ff       	mov    $0xffffffff,%eax
    }
}
    1c0b:	48 83 c4 38          	add    $0x38,%rsp
    1c0f:	5b                   	pop    %rbx
    1c10:	5d                   	pop    %rbp
    1c11:	c3                   	retq   

0000000000001c12 <_ZL20check_rsrv_dyn_rangePvmP24dynamic_flags_attributes>:
extern void *rsrv_mem_base;
extern size_t rsrv_mem_size;
extern size_t rsrv_mem_min_size;

static int check_rsrv_dyn_range(void *addr, size_t page_count, struct dynamic_flags_attributes *fa)
{
    1c12:	55                   	push   %rbp
    1c13:	48 89 e5             	mov    %rsp,%rbp
    1c16:	48 89 7d e8          	mov    %rdi,-0x18(%rbp)
    1c1a:	48 89 75 e0          	mov    %rsi,-0x20(%rbp)
    1c1e:	48 89 55 d8          	mov    %rdx,-0x28(%rbp)
    size_t rsrv_mem_dyn_start, rsrv_mem_dyn_size;

    rsrv_mem_dyn_start = (size_t)rsrv_mem_base + rsrv_mem_min_size;
    1c22:	48 8d 05 ff f1 00 00 	lea    0xf1ff(%rip),%rax        # 10e28 <rsrv_mem_base>
    1c29:	48 8b 00             	mov    (%rax),%rax
    1c2c:	48 89 c2             	mov    %rax,%rdx
    1c2f:	48 8d 05 02 f2 00 00 	lea    0xf202(%rip),%rax        # 10e38 <rsrv_mem_min_size>
    1c36:	48 8b 00             	mov    (%rax),%rax
    1c39:	48 01 d0             	add    %rdx,%rax
    1c3c:	48 89 45 f0          	mov    %rax,-0x10(%rbp)
    rsrv_mem_dyn_size = rsrv_mem_size - rsrv_mem_min_size;
    1c40:	48 8d 05 e9 f1 00 00 	lea    0xf1e9(%rip),%rax        # 10e30 <rsrv_mem_size>
    1c47:	48 8b 10             	mov    (%rax),%rdx
    1c4a:	48 8d 05 e7 f1 00 00 	lea    0xf1e7(%rip),%rax        # 10e38 <rsrv_mem_min_size>
    1c51:	48 8b 00             	mov    (%rax),%rax
    1c54:	48 29 c2             	sub    %rax,%rdx
    1c57:	48 89 d0             	mov    %rdx,%rax
    1c5a:	48 89 45 f8          	mov    %rax,-0x8(%rbp)

    if ((size_t)addr >= rsrv_mem_dyn_start
    1c5e:	48 8b 45 e8          	mov    -0x18(%rbp),%rax
    1c62:	48 39 45 f0          	cmp    %rax,-0x10(%rbp)
    1c66:	77 46                	ja     1cae <_ZL20check_rsrv_dyn_rangePvmP24dynamic_flags_attributes+0x9c>
            && (size_t)addr + (page_count << SE_PAGE_SHIFT) <= rsrv_mem_dyn_start + rsrv_mem_dyn_size)
    1c68:	48 8b 45 e0          	mov    -0x20(%rbp),%rax
    1c6c:	48 c1 e0 0c          	shl    $0xc,%rax
    1c70:	48 89 c2             	mov    %rax,%rdx
    1c73:	48 8b 45 e8          	mov    -0x18(%rbp),%rax
    1c77:	48 8d 0c 02          	lea    (%rdx,%rax,1),%rcx
    1c7b:	48 8b 55 f0          	mov    -0x10(%rbp),%rdx
    1c7f:	48 8b 45 f8          	mov    -0x8(%rbp),%rax
    1c83:	48 01 d0             	add    %rdx,%rax
    1c86:	48 39 c1             	cmp    %rax,%rcx
    1c89:	77 23                	ja     1cae <_ZL20check_rsrv_dyn_rangePvmP24dynamic_flags_attributes+0x9c>
    {
        if (fa != NULL)
    1c8b:	48 83 7d d8 00       	cmpq   $0x0,-0x28(%rbp)
    1c90:	74 15                	je     1ca7 <_ZL20check_rsrv_dyn_rangePvmP24dynamic_flags_attributes+0x95>
        {
            fa->si_flags = SI_FLAGS_RW;
    1c92:	48 8b 45 d8          	mov    -0x28(%rbp),%rax
    1c96:	48 c7 00 03 02 00 00 	movq   $0x203,(%rax)
            fa->attributes = PAGE_ATTR_POST_ADD;
    1c9d:	48 8b 45 d8          	mov    -0x28(%rbp),%rax
    1ca1:	66 c7 40 08 08 00    	movw   $0x8,0x8(%rax)
        }
        return 0;
    1ca7:	b8 00 00 00 00       	mov    $0x0,%eax
    1cac:	eb 05                	jmp    1cb3 <_ZL20check_rsrv_dyn_rangePvmP24dynamic_flags_attributes+0xa1>
    }
    else
    {
        return -1;
    1cae:	b8 ff ff ff ff       	mov    $0xffffffff,%eax
    }
}
    1cb3:	5d                   	pop    %rbp
    1cb4:	c3                   	retq   

0000000000001cb5 <_ZL25check_dynamic_entry_rangePvmtmP24dynamic_flags_attributes>:


static int check_dynamic_entry_range(void *addr, size_t page_count, uint16_t entry_id, size_t entry_offset, struct dynamic_flags_attributes *fa)
{
    1cb5:	55                   	push   %rbp
    1cb6:	48 89 e5             	mov    %rsp,%rbp
    1cb9:	48 83 ec 50          	sub    $0x50,%rsp
    1cbd:	48 89 7d d8          	mov    %rdi,-0x28(%rbp)
    1cc1:	48 89 75 d0          	mov    %rsi,-0x30(%rbp)
    1cc5:	89 d0                	mov    %edx,%eax
    1cc7:	48 89 4d c0          	mov    %rcx,-0x40(%rbp)
    1ccb:	4c 89 45 b8          	mov    %r8,-0x48(%rbp)
    1ccf:	66 89 45 cc          	mov    %ax,-0x34(%rbp)
    const volatile layout_t *layout = NULL;
    1cd3:	48 c7 45 f0 00 00 00 	movq   $0x0,-0x10(%rbp)
    1cda:	00 
    size_t entry_start_addr;
    uint32_t entry_page_count;

    if (entry_id < LAYOUT_ID_HEAP_MIN
            || entry_id > LAYOUT_ID_STACK_DYN_MIN
            || (NULL == (layout = get_dynamic_layout_by_id(entry_id))))
    1cdb:	66 83 7d cc 00       	cmpw   $0x0,-0x34(%rbp)
    1ce0:	74 1d                	je     1cff <_ZL25check_dynamic_entry_rangePvmtmP24dynamic_flags_attributes+0x4a>
            || entry_id > LAYOUT_ID_STACK_DYN_MIN
    1ce2:	66 83 7d cc 12       	cmpw   $0x12,-0x34(%rbp)
    1ce7:	77 16                	ja     1cff <_ZL25check_dynamic_entry_rangePvmtmP24dynamic_flags_attributes+0x4a>
            || (NULL == (layout = get_dynamic_layout_by_id(entry_id))))
    1ce9:	0f b7 45 cc          	movzwl -0x34(%rbp),%eax
    1ced:	89 c7                	mov    %eax,%edi
    1cef:	e8 a1 fc ff ff       	callq  1995 <_Z24get_dynamic_layout_by_idt>
    1cf4:	48 89 45 f0          	mov    %rax,-0x10(%rbp)
    1cf8:	48 83 7d f0 00       	cmpq   $0x0,-0x10(%rbp)
    1cfd:	75 07                	jne    1d06 <_ZL25check_dynamic_entry_rangePvmtmP24dynamic_flags_attributes+0x51>
    1cff:	b8 01 00 00 00       	mov    $0x1,%eax
    1d04:	eb 05                	jmp    1d0b <_ZL25check_dynamic_entry_rangePvmtmP24dynamic_flags_attributes+0x56>
    1d06:	b8 00 00 00 00       	mov    $0x0,%eax
    if (entry_id < LAYOUT_ID_HEAP_MIN
    1d0b:	84 c0                	test   %al,%al
    1d0d:	74 0a                	je     1d19 <_ZL25check_dynamic_entry_rangePvmtmP24dynamic_flags_attributes+0x64>
    {
        return -1;
    1d0f:	b8 ff ff ff ff       	mov    $0xffffffff,%eax
    1d14:	e9 8c 00 00 00       	jmpq   1da5 <_ZL25check_dynamic_entry_rangePvmtmP24dynamic_flags_attributes+0xf0>
    }

    entry_start_addr = (size_t)get_enclave_base() + (size_t)layout->entry.rva + entry_offset;
    1d19:	e8 46 a9 00 00       	callq  c664 <get_enclave_base>
    1d1e:	48 89 c2             	mov    %rax,%rdx
    1d21:	48 8b 45 f0          	mov    -0x10(%rbp),%rax
    1d25:	48 8b 40 08          	mov    0x8(%rax),%rax
    1d29:	48 01 c2             	add    %rax,%rdx
    1d2c:	48 8b 45 c0          	mov    -0x40(%rbp),%rax
    1d30:	48 01 d0             	add    %rdx,%rax
    1d33:	48 89 45 f8          	mov    %rax,-0x8(%rbp)
    entry_page_count = layout->entry.page_count;
    1d37:	48 8b 45 f0          	mov    -0x10(%rbp),%rax
    1d3b:	8b 40 04             	mov    0x4(%rax),%eax
    1d3e:	89 45 ec             	mov    %eax,-0x14(%rbp)
    if ((size_t)addr >= entry_start_addr
    1d41:	48 8b 45 d8          	mov    -0x28(%rbp),%rax
    1d45:	48 39 45 f8          	cmp    %rax,-0x8(%rbp)
    1d49:	77 55                	ja     1da0 <_ZL25check_dynamic_entry_rangePvmtmP24dynamic_flags_attributes+0xeb>
            && (size_t)addr + (page_count << SE_PAGE_SHIFT) <= entry_start_addr + ((size_t)entry_page_count << SE_PAGE_SHIFT))
    1d4b:	48 8b 45 d0          	mov    -0x30(%rbp),%rax
    1d4f:	48 c1 e0 0c          	shl    $0xc,%rax
    1d53:	48 89 c2             	mov    %rax,%rdx
    1d56:	48 8b 45 d8          	mov    -0x28(%rbp),%rax
    1d5a:	48 01 c2             	add    %rax,%rdx
    1d5d:	8b 45 ec             	mov    -0x14(%rbp),%eax
    1d60:	48 c1 e0 0c          	shl    $0xc,%rax
    1d64:	48 89 c1             	mov    %rax,%rcx
    1d67:	48 8b 45 f8          	mov    -0x8(%rbp),%rax
    1d6b:	48 01 c8             	add    %rcx,%rax
    1d6e:	48 39 c2             	cmp    %rax,%rdx
    1d71:	77 2d                	ja     1da0 <_ZL25check_dynamic_entry_rangePvmtmP24dynamic_flags_attributes+0xeb>
    {
        if (fa != NULL)
    1d73:	48 83 7d b8 00       	cmpq   $0x0,-0x48(%rbp)
    1d78:	74 1f                	je     1d99 <_ZL25check_dynamic_entry_rangePvmtmP24dynamic_flags_attributes+0xe4>
        {
            fa->si_flags = layout->entry.si_flags;
    1d7a:	48 8b 45 f0          	mov    -0x10(%rbp),%rax
    1d7e:	48 8b 50 18          	mov    0x18(%rax),%rdx
    1d82:	48 8b 45 b8          	mov    -0x48(%rbp),%rax
    1d86:	48 89 10             	mov    %rdx,(%rax)
            fa->attributes = layout->entry.attributes;
    1d89:	48 8b 45 f0          	mov    -0x10(%rbp),%rax
    1d8d:	0f b7 50 02          	movzwl 0x2(%rax),%edx
    1d91:	48 8b 45 b8          	mov    -0x48(%rbp),%rax
    1d95:	66 89 50 08          	mov    %dx,0x8(%rax)
        }
        return 0;
    1d99:	b8 00 00 00 00       	mov    $0x0,%eax
    1d9e:	eb 05                	jmp    1da5 <_ZL25check_dynamic_entry_rangePvmtmP24dynamic_flags_attributes+0xf0>
    }
    else
    {
        return -1;
    1da0:	b8 ff ff ff ff       	mov    $0xffffffff,%eax
    }
}
    1da5:	c9                   	leaveq 
    1da6:	c3                   	retq   

0000000000001da7 <_ZL34check_utility_thread_dynamic_stackPvmP24dynamic_flags_attributes>:

static int check_utility_thread_dynamic_stack(void *addr, size_t page_count, struct dynamic_flags_attributes *fa)
{
    1da7:	55                   	push   %rbp
    1da8:	48 89 e5             	mov    %rsp,%rbp
    1dab:	48 83 ec 20          	sub    $0x20,%rsp
    1daf:	48 89 7d f8          	mov    %rdi,-0x8(%rbp)
    1db3:	48 89 75 f0          	mov    %rsi,-0x10(%rbp)
    1db7:	48 89 55 e8          	mov    %rdx,-0x18(%rbp)
    return check_dynamic_entry_range(addr, page_count, LAYOUT_ID_STACK_MAX, 0, fa);
    1dbb:	48 8b 55 e8          	mov    -0x18(%rbp),%rdx
    1dbf:	48 8b 75 f0          	mov    -0x10(%rbp),%rsi
    1dc3:	48 8b 45 f8          	mov    -0x8(%rbp),%rax
    1dc7:	49 89 d0             	mov    %rdx,%r8
    1dca:	b9 00 00 00 00       	mov    $0x0,%ecx
    1dcf:	ba 07 00 00 00       	mov    $0x7,%edx
    1dd4:	48 89 c7             	mov    %rax,%rdi
    1dd7:	e8 d9 fe ff ff       	callq  1cb5 <_ZL25check_dynamic_entry_rangePvmtmP24dynamic_flags_attributes>
}
    1ddc:	c9                   	leaveq 
    1ddd:	c3                   	retq   

0000000000001dde <_ZL19check_dynamic_rangePvmPmP24dynamic_flags_attributes>:

// Verify if the range specified belongs to a dynamic range recorded in metadata.
static int check_dynamic_range(void *addr, size_t page_count, size_t *offset, struct dynamic_flags_attributes *fa)
{
    1dde:	55                   	push   %rbp
    1ddf:	48 89 e5             	mov    %rsp,%rbp
    1de2:	48 83 ec 30          	sub    $0x30,%rsp
    1de6:	48 89 7d e8          	mov    %rdi,-0x18(%rbp)
    1dea:	48 89 75 e0          	mov    %rsi,-0x20(%rbp)
    1dee:	48 89 55 d8          	mov    %rdx,-0x28(%rbp)
    1df2:	48 89 4d d0          	mov    %rcx,-0x30(%rbp)
    const volatile layout_t *dt_layout = NULL;
    1df6:	48 c7 45 f8 00 00 00 	movq   $0x0,-0x8(%rbp)
    1dfd:	00 

    // check for integer overflow
    if ((size_t)addr > SIZE_MAX - (page_count << SE_PAGE_SHIFT))
    1dfe:	48 8b 45 e0          	mov    -0x20(%rbp),%rax
    1e02:	48 c1 e0 0c          	shl    $0xc,%rax
    1e06:	48 f7 d0             	not    %rax
    1e09:	48 89 c2             	mov    %rax,%rdx
    1e0c:	48 8b 45 e8          	mov    -0x18(%rbp),%rax
    1e10:	48 39 c2             	cmp    %rax,%rdx
    1e13:	73 0a                	jae    1e1f <_ZL19check_dynamic_rangePvmPmP24dynamic_flags_attributes+0x41>
        return -1;
    1e15:	b8 ff ff ff ff       	mov    $0xffffffff,%eax
    1e1a:	e9 99 01 00 00       	jmpq   1fb8 <_ZL19check_dynamic_rangePvmPmP24dynamic_flags_attributes+0x1da>

    // check heap dynamic range
    if (0 == check_heap_dyn_range(addr, page_count, fa))
    1e1f:	48 8b 55 d0          	mov    -0x30(%rbp),%rdx
    1e23:	48 8b 4d e0          	mov    -0x20(%rbp),%rcx
    1e27:	48 8b 45 e8          	mov    -0x18(%rbp),%rax
    1e2b:	48 89 ce             	mov    %rcx,%rsi
    1e2e:	48 89 c7             	mov    %rax,%rdi
    1e31:	e8 40 fd ff ff       	callq  1b76 <_ZL20check_heap_dyn_rangePvmP24dynamic_flags_attributes>
    1e36:	85 c0                	test   %eax,%eax
    1e38:	0f 94 c0             	sete   %al
    1e3b:	84 c0                	test   %al,%al
    1e3d:	74 0a                	je     1e49 <_ZL19check_dynamic_rangePvmPmP24dynamic_flags_attributes+0x6b>
        return 0;
    1e3f:	b8 00 00 00 00       	mov    $0x0,%eax
    1e44:	e9 6f 01 00 00       	jmpq   1fb8 <_ZL19check_dynamic_rangePvmPmP24dynamic_flags_attributes+0x1da>

    // check dynamic stack within utility thread
    if (0 == check_utility_thread_dynamic_stack(addr, page_count, fa))
    1e49:	48 8b 55 d0          	mov    -0x30(%rbp),%rdx
    1e4d:	48 8b 4d e0          	mov    -0x20(%rbp),%rcx
    1e51:	48 8b 45 e8          	mov    -0x18(%rbp),%rax
    1e55:	48 89 ce             	mov    %rcx,%rsi
    1e58:	48 89 c7             	mov    %rax,%rdi
    1e5b:	e8 47 ff ff ff       	callq  1da7 <_ZL34check_utility_thread_dynamic_stackPvmP24dynamic_flags_attributes>
    1e60:	85 c0                	test   %eax,%eax
    1e62:	0f 94 c0             	sete   %al
    1e65:	84 c0                	test   %al,%al
    1e67:	74 0a                	je     1e73 <_ZL19check_dynamic_rangePvmPmP24dynamic_flags_attributes+0x95>
        return 0;
    1e69:	b8 00 00 00 00       	mov    $0x0,%eax
    1e6e:	e9 45 01 00 00       	jmpq   1fb8 <_ZL19check_dynamic_rangePvmPmP24dynamic_flags_attributes+0x1da>

    if (0 == check_rsrv_dyn_range(addr, page_count, fa))
    1e73:	48 8b 55 d0          	mov    -0x30(%rbp),%rdx
    1e77:	48 8b 4d e0          	mov    -0x20(%rbp),%rcx
    1e7b:	48 8b 45 e8          	mov    -0x18(%rbp),%rax
    1e7f:	48 89 ce             	mov    %rcx,%rsi
    1e82:	48 89 c7             	mov    %rax,%rdi
    1e85:	e8 88 fd ff ff       	callq  1c12 <_ZL20check_rsrv_dyn_rangePvmP24dynamic_flags_attributes>
    1e8a:	85 c0                	test   %eax,%eax
    1e8c:	0f 94 c0             	sete   %al
    1e8f:	84 c0                	test   %al,%al
    1e91:	74 0a                	je     1e9d <_ZL19check_dynamic_rangePvmPmP24dynamic_flags_attributes+0xbf>
        return 0;
    1e93:	b8 00 00 00 00       	mov    $0x0,%eax
    1e98:	e9 1b 01 00 00       	jmpq   1fb8 <_ZL19check_dynamic_rangePvmPmP24dynamic_flags_attributes+0x1da>

    // check dynamic thread entries range
    if (NULL != (dt_layout = get_dynamic_layout_by_id(LAYOUT_ID_THREAD_GROUP_DYN)))
    1e9d:	bf 13 10 00 00       	mov    $0x1013,%edi
    1ea2:	e8 ee fa ff ff       	callq  1995 <_Z24get_dynamic_layout_by_idt>
    1ea7:	48 89 45 f8          	mov    %rax,-0x8(%rbp)
    1eab:	48 83 7d f8 00       	cmpq   $0x0,-0x8(%rbp)
    1eb0:	0f 95 c0             	setne  %al
    1eb3:	84 c0                	test   %al,%al
    1eb5:	0f 84 9c 00 00 00    	je     1f57 <_ZL19check_dynamic_rangePvmPmP24dynamic_flags_attributes+0x179>
    {
        for (uint16_t id = LAYOUT_ID_TCS_DYN; id <= LAYOUT_ID_STACK_DYN_MIN; id++)
    1ebb:	66 c7 45 f0 0e 00    	movw   $0xe,-0x10(%rbp)
    1ec1:	66 83 7d f0 12       	cmpw   $0x12,-0x10(%rbp)
    1ec6:	0f 87 e7 00 00 00    	ja     1fb3 <_ZL19check_dynamic_rangePvmPmP24dynamic_flags_attributes+0x1d5>
            for (uint32_t i = 0; i < dt_layout->group.load_times + 1; i++)
    1ecc:	c7 45 f4 00 00 00 00 	movl   $0x0,-0xc(%rbp)
    1ed3:	48 8b 45 f8          	mov    -0x8(%rbp),%rax
    1ed7:	8b 40 04             	mov    0x4(%rax),%eax
    1eda:	83 c0 01             	add    $0x1,%eax
    1edd:	39 45 f4             	cmp    %eax,-0xc(%rbp)
    1ee0:	0f 92 c0             	setb   %al
    1ee3:	84 c0                	test   %al,%al
    1ee5:	74 60                	je     1f47 <_ZL19check_dynamic_rangePvmPmP24dynamic_flags_attributes+0x169>
            {
                if (0 == check_dynamic_entry_range(addr, page_count, id, i * ((size_t)dt_layout->group.load_step), fa))
    1ee7:	8b 55 f4             	mov    -0xc(%rbp),%edx
    1eea:	48 8b 45 f8          	mov    -0x8(%rbp),%rax
    1eee:	48 8b 40 08          	mov    0x8(%rax),%rax
    1ef2:	48 89 d1             	mov    %rdx,%rcx
    1ef5:	48 0f af c8          	imul   %rax,%rcx
    1ef9:	0f b7 55 f0          	movzwl -0x10(%rbp),%edx
    1efd:	48 8b 7d d0          	mov    -0x30(%rbp),%rdi
    1f01:	48 8b 75 e0          	mov    -0x20(%rbp),%rsi
    1f05:	48 8b 45 e8          	mov    -0x18(%rbp),%rax
    1f09:	49 89 f8             	mov    %rdi,%r8
    1f0c:	48 89 c7             	mov    %rax,%rdi
    1f0f:	e8 a1 fd ff ff       	callq  1cb5 <_ZL25check_dynamic_entry_rangePvmtmP24dynamic_flags_attributes>
    1f14:	85 c0                	test   %eax,%eax
    1f16:	0f 94 c0             	sete   %al
    1f19:	84 c0                	test   %al,%al
    1f1b:	74 24                	je     1f41 <_ZL19check_dynamic_rangePvmPmP24dynamic_flags_attributes+0x163>
                {
                    if (offset != NULL) *offset = i * ((size_t)dt_layout->group.load_step);
    1f1d:	48 83 7d d8 00       	cmpq   $0x0,-0x28(%rbp)
    1f22:	74 16                	je     1f3a <_ZL19check_dynamic_rangePvmPmP24dynamic_flags_attributes+0x15c>
    1f24:	8b 55 f4             	mov    -0xc(%rbp),%edx
    1f27:	48 8b 45 f8          	mov    -0x8(%rbp),%rax
    1f2b:	48 8b 40 08          	mov    0x8(%rax),%rax
    1f2f:	48 0f af d0          	imul   %rax,%rdx
    1f33:	48 8b 45 d8          	mov    -0x28(%rbp),%rax
    1f37:	48 89 10             	mov    %rdx,(%rax)
                    return 0;
    1f3a:	b8 00 00 00 00       	mov    $0x0,%eax
    1f3f:	eb 77                	jmp    1fb8 <_ZL19check_dynamic_rangePvmPmP24dynamic_flags_attributes+0x1da>
            for (uint32_t i = 0; i < dt_layout->group.load_times + 1; i++)
    1f41:	83 45 f4 01          	addl   $0x1,-0xc(%rbp)
    1f45:	eb 8c                	jmp    1ed3 <_ZL19check_dynamic_rangePvmPmP24dynamic_flags_attributes+0xf5>
        for (uint16_t id = LAYOUT_ID_TCS_DYN; id <= LAYOUT_ID_STACK_DYN_MIN; id++)
    1f47:	0f b7 45 f0          	movzwl -0x10(%rbp),%eax
    1f4b:	83 c0 01             	add    $0x1,%eax
    1f4e:	66 89 45 f0          	mov    %ax,-0x10(%rbp)
    1f52:	e9 6a ff ff ff       	jmpq   1ec1 <_ZL19check_dynamic_rangePvmPmP24dynamic_flags_attributes+0xe3>
            }
    }
    else
    {
        // LAYOUT_ID_THREAD_GROUP_DYN does not exist, but possibly there is one single dynamic thead
        for (uint16_t id = LAYOUT_ID_TCS_DYN; id <= LAYOUT_ID_STACK_DYN_MIN; id++)
    1f57:	66 c7 45 f2 0e 00    	movw   $0xe,-0xe(%rbp)
    1f5d:	66 83 7d f2 12       	cmpw   $0x12,-0xe(%rbp)
    1f62:	77 4f                	ja     1fb3 <_ZL19check_dynamic_rangePvmPmP24dynamic_flags_attributes+0x1d5>
            if (0 == check_dynamic_entry_range(addr, page_count, id, 0, fa))
    1f64:	0f b7 55 f2          	movzwl -0xe(%rbp),%edx
    1f68:	48 8b 4d d0          	mov    -0x30(%rbp),%rcx
    1f6c:	48 8b 75 e0          	mov    -0x20(%rbp),%rsi
    1f70:	48 8b 45 e8          	mov    -0x18(%rbp),%rax
    1f74:	49 89 c8             	mov    %rcx,%r8
    1f77:	b9 00 00 00 00       	mov    $0x0,%ecx
    1f7c:	48 89 c7             	mov    %rax,%rdi
    1f7f:	e8 31 fd ff ff       	callq  1cb5 <_ZL25check_dynamic_entry_rangePvmtmP24dynamic_flags_attributes>
    1f84:	85 c0                	test   %eax,%eax
    1f86:	0f 94 c0             	sete   %al
    1f89:	84 c0                	test   %al,%al
    1f8b:	74 19                	je     1fa6 <_ZL19check_dynamic_rangePvmPmP24dynamic_flags_attributes+0x1c8>
            {
                if (offset != NULL) *offset = 0;
    1f8d:	48 83 7d d8 00       	cmpq   $0x0,-0x28(%rbp)
    1f92:	74 0b                	je     1f9f <_ZL19check_dynamic_rangePvmPmP24dynamic_flags_attributes+0x1c1>
    1f94:	48 8b 45 d8          	mov    -0x28(%rbp),%rax
    1f98:	48 c7 00 00 00 00 00 	movq   $0x0,(%rax)
                return 0;
    1f9f:	b8 00 00 00 00       	mov    $0x0,%eax
    1fa4:	eb 12                	jmp    1fb8 <_ZL19check_dynamic_rangePvmPmP24dynamic_flags_attributes+0x1da>
        for (uint16_t id = LAYOUT_ID_TCS_DYN; id <= LAYOUT_ID_STACK_DYN_MIN; id++)
    1fa6:	0f b7 45 f2          	movzwl -0xe(%rbp),%eax
    1faa:	83 c0 01             	add    $0x1,%eax
    1fad:	66 89 45 f2          	mov    %ax,-0xe(%rbp)
    1fb1:	eb aa                	jmp    1f5d <_ZL19check_dynamic_rangePvmPmP24dynamic_flags_attributes+0x17f>
            }
    }
    return -1;
    1fb3:	b8 ff ff ff ff       	mov    $0xffffffff,%eax
}
    1fb8:	c9                   	leaveq 
    1fb9:	c3                   	retq   

0000000000001fba <is_dynamic_thread>:

int is_dynamic_thread(void *tcs)
{
    1fba:	55                   	push   %rbp
    1fbb:	48 89 e5             	mov    %rsp,%rbp
    1fbe:	48 83 ec 30          	sub    $0x30,%rsp
    1fc2:	48 89 7d d8          	mov    %rdi,-0x28(%rbp)
    1fc6:	64 48 8b 04 25 28 00 	mov    %fs:0x28,%rax
    1fcd:	00 00 
    1fcf:	48 89 45 f8          	mov    %rax,-0x8(%rbp)
    1fd3:	31 c0                	xor    %eax,%eax
    struct dynamic_flags_attributes fa;

    if ((tcs != NULL) && (check_dynamic_range(tcs, 1, NULL, &fa) == 0) &&
    1fd5:	48 83 7d d8 00       	cmpq   $0x0,-0x28(%rbp)
    1fda:	74 34                	je     2010 <is_dynamic_thread+0x56>
    1fdc:	48 8d 55 e0          	lea    -0x20(%rbp),%rdx
    1fe0:	48 8b 45 d8          	mov    -0x28(%rbp),%rax
    1fe4:	48 89 d1             	mov    %rdx,%rcx
    1fe7:	ba 00 00 00 00       	mov    $0x0,%edx
    1fec:	be 01 00 00 00       	mov    $0x1,%esi
    1ff1:	48 89 c7             	mov    %rax,%rdi
    1ff4:	e8 e5 fd ff ff       	callq  1dde <_ZL19check_dynamic_rangePvmPmP24dynamic_flags_attributes>
    1ff9:	85 c0                	test   %eax,%eax
    1ffb:	75 13                	jne    2010 <is_dynamic_thread+0x56>
            (fa.si_flags == SI_FLAGS_TCS))
    1ffd:	48 8b 45 e0          	mov    -0x20(%rbp),%rax
    if ((tcs != NULL) && (check_dynamic_range(tcs, 1, NULL, &fa) == 0) &&
    2001:	48 3d 00 01 00 00    	cmp    $0x100,%rax
    2007:	75 07                	jne    2010 <is_dynamic_thread+0x56>
    2009:	b8 01 00 00 00       	mov    $0x1,%eax
    200e:	eb 05                	jmp    2015 <is_dynamic_thread+0x5b>
    2010:	b8 00 00 00 00       	mov    $0x0,%eax
    2015:	84 c0                	test   %al,%al
    2017:	74 07                	je     2020 <is_dynamic_thread+0x66>
    {
        return true;
    2019:	b8 01 00 00 00       	mov    $0x1,%eax
    201e:	eb 05                	jmp    2025 <is_dynamic_thread+0x6b>
    }

    return false;
    2020:	b8 00 00 00 00       	mov    $0x0,%eax
}
    2025:	48 8b 4d f8          	mov    -0x8(%rbp),%rcx
    2029:	64 48 33 0c 25 28 00 	xor    %fs:0x28,%rcx
    2030:	00 00 
    2032:	74 05                	je     2039 <is_dynamic_thread+0x7f>
    2034:	e8 a1 32 00 00       	callq  52da <__stack_chk_fail>
    2039:	c9                   	leaveq 
    203a:	c3                   	retq   

000000000000203b <is_dynamic_thread_exist>:

int is_dynamic_thread_exist()
{
    203b:	55                   	push   %rbp
    203c:	48 89 e5             	mov    %rsp,%rbp
    203f:	48 83 ec 10          	sub    $0x10,%rsp
    if(!EDMM_supported)
    2043:	48 8d 05 a6 ed 00 00 	lea    0xeda6(%rip),%rax        # 10df0 <EDMM_supported>
    204a:	8b 00                	mov    (%rax),%eax
    204c:	85 c0                	test   %eax,%eax
    204e:	75 07                	jne    2057 <is_dynamic_thread_exist+0x1c>
        return false;
    2050:	b8 00 00 00 00       	mov    $0x0,%eax
    2055:	eb 21                	jmp    2078 <is_dynamic_thread_exist+0x3d>
    const volatile layout_t * layout = get_dynamic_layout_by_id(LAYOUT_ID_STACK_DYN_MIN);
    2057:	bf 12 00 00 00       	mov    $0x12,%edi
    205c:	e8 34 f9 ff ff       	callq  1995 <_Z24get_dynamic_layout_by_idt>
    2061:	48 89 45 f8          	mov    %rax,-0x8(%rbp)
    if (!layout)
    2065:	48 83 7d f8 00       	cmpq   $0x0,-0x8(%rbp)
    206a:	75 07                	jne    2073 <is_dynamic_thread_exist+0x38>
        return false;
    206c:	b8 00 00 00 00       	mov    $0x0,%eax
    2071:	eb 05                	jmp    2078 <is_dynamic_thread_exist+0x3d>
    else
        return true;
    2073:	b8 01 00 00 00       	mov    $0x1,%eax
}
    2078:	c9                   	leaveq 
    2079:	c3                   	retq   

000000000000207a <get_dynamic_stack_max_page>:


uint32_t get_dynamic_stack_max_page()
{
    207a:	55                   	push   %rbp
    207b:	48 89 e5             	mov    %rsp,%rbp
    207e:	48 83 ec 10          	sub    $0x10,%rsp
    const volatile layout_t * layout = get_dynamic_layout_by_id(LAYOUT_ID_STACK_MAX);
    2082:	bf 07 00 00 00       	mov    $0x7,%edi
    2087:	e8 09 f9 ff ff       	callq  1995 <_Z24get_dynamic_layout_by_idt>
    208c:	48 89 45 f8          	mov    %rax,-0x8(%rbp)
    if (!layout)
    2090:	48 83 7d f8 00       	cmpq   $0x0,-0x8(%rbp)
    2095:	75 07                	jne    209e <get_dynamic_stack_max_page+0x24>
        return 0;
    2097:	b8 00 00 00 00       	mov    $0x0,%eax
    209c:	eb 07                	jmp    20a5 <get_dynamic_stack_max_page+0x2b>
    else
        return layout->entry.page_count;
    209e:	48 8b 45 f8          	mov    -0x8(%rbp),%rax
    20a2:	8b 40 04             	mov    0x4(%rax),%eax
}
    20a5:	c9                   	leaveq 
    20a6:	c3                   	retq   

00000000000020a7 <sgx_accept_forward>:
#endif

int sgx_accept_forward(si_flags_t sfl, size_t lo, size_t hi)
{
    20a7:	4c 8d 54 24 08       	lea    0x8(%rsp),%r10
    20ac:	48 83 e4 c0          	and    $0xffffffffffffffc0,%rsp
    20b0:	41 ff 72 f8          	pushq  -0x8(%r10)
    20b4:	55                   	push   %rbp
    20b5:	48 89 e5             	mov    %rsp,%rbp
    20b8:	41 52                	push   %r10
    20ba:	48 81 ec e8 00 00 00 	sub    $0xe8,%rsp
    20c1:	48 89 bd 38 ff ff ff 	mov    %rdi,-0xc8(%rbp)
    20c8:	48 89 b5 30 ff ff ff 	mov    %rsi,-0xd0(%rbp)
    20cf:	48 89 95 28 ff ff ff 	mov    %rdx,-0xd8(%rbp)
    20d6:	64 48 8b 04 25 28 00 	mov    %fs:0x28,%rax
    20dd:	00 00 
    20df:	48 89 45 c8          	mov    %rax,-0x38(%rbp)
    20e3:	31 c0                	xor    %eax,%eax
    (void)sfl;
    (void)lo;
    (void)hi;
    return 0;
#else
    size_t addr = lo;
    20e5:	48 8b 85 30 ff ff ff 	mov    -0xd0(%rbp),%rax
    20ec:	48 89 85 48 ff ff ff 	mov    %rax,-0xb8(%rbp)
    SE_DECLSPEC_ALIGN(sizeof(sec_info_t)) sec_info_t si;
    si.flags = sfl;
    20f3:	48 8b 85 38 ff ff ff 	mov    -0xc8(%rbp),%rax
    20fa:	48 89 85 50 ff ff ff 	mov    %rax,-0xb0(%rbp)
    for (uint16_t i = 0; i < (sizeof(si.reserved)/sizeof(si.reserved[0])); i++)
    2101:	66 c7 85 42 ff ff ff 	movw   $0x0,-0xbe(%rbp)
    2108:	00 00 
    210a:	66 83 bd 42 ff ff ff 	cmpw   $0x6,-0xbe(%rbp)
    2111:	06 
    2112:	77 28                	ja     213c <sgx_accept_forward+0x95>
        si.reserved[i] = 0;
    2114:	0f b7 85 42 ff ff ff 	movzwl -0xbe(%rbp),%eax
    211b:	48 98                	cltq   
    211d:	48 c7 84 c5 58 ff ff 	movq   $0x0,-0xa8(%rbp,%rax,8)
    2124:	ff 00 00 00 00 
    for (uint16_t i = 0; i < (sizeof(si.reserved)/sizeof(si.reserved[0])); i++)
    2129:	0f b7 85 42 ff ff ff 	movzwl -0xbe(%rbp),%eax
    2130:	83 c0 01             	add    $0x1,%eax
    2133:	66 89 85 42 ff ff ff 	mov    %ax,-0xbe(%rbp)
    213a:	eb ce                	jmp    210a <sgx_accept_forward+0x63>

    while (addr < hi)
    213c:	48 8b 85 48 ff ff ff 	mov    -0xb8(%rbp),%rax
    2143:	48 3b 85 28 ff ff ff 	cmp    -0xd8(%rbp),%rax
    214a:	73 3a                	jae    2186 <sgx_accept_forward+0xdf>
    {
        int rc = do_eaccept(&si, addr);
    214c:	48 8b 95 48 ff ff ff 	mov    -0xb8(%rbp),%rdx
    2153:	48 8d 85 50 ff ff ff 	lea    -0xb0(%rbp),%rax
    215a:	48 89 d6             	mov    %rdx,%rsi
    215d:	48 89 c7             	mov    %rax,%rdi
    2160:	e8 1b a8 00 00       	callq  c980 <do_eaccept>
    2165:	89 85 44 ff ff ff    	mov    %eax,-0xbc(%rbp)
        if (rc != 0)
    216b:	83 bd 44 ff ff ff 00 	cmpl   $0x0,-0xbc(%rbp)
    2172:	74 05                	je     2179 <sgx_accept_forward+0xd2>
            abort();
    2174:	e8 55 a8 00 00       	callq  c9ce <abort>
        addr += SE_PAGE_SIZE;
    2179:	48 81 85 48 ff ff ff 	addq   $0x1000,-0xb8(%rbp)
    2180:	00 10 00 00 
    while (addr < hi)
    2184:	eb b6                	jmp    213c <sgx_accept_forward+0x95>
    }

    return 0;
    2186:	b8 00 00 00 00       	mov    $0x0,%eax
#endif
}
    218b:	48 8b 4d c8          	mov    -0x38(%rbp),%rcx
    218f:	64 48 33 0c 25 28 00 	xor    %fs:0x28,%rcx
    2196:	00 00 
    2198:	74 05                	je     219f <sgx_accept_forward+0xf8>
    219a:	e8 3b 31 00 00       	callq  52da <__stack_chk_fail>
    219f:	48 81 c4 e8 00 00 00 	add    $0xe8,%rsp
    21a6:	41 5a                	pop    %r10
    21a8:	5d                   	pop    %rbp
    21a9:	49 8d 62 f8          	lea    -0x8(%r10),%rsp
    21ad:	c3                   	retq   

00000000000021ae <apply_pages_within_exception>:

// High level API to EACCEPT pages, mainly used in exception handling
// to deal with stack expansion. 
int apply_pages_within_exception(void *start_address, size_t page_count)
{
    21ae:	55                   	push   %rbp
    21af:	48 89 e5             	mov    %rsp,%rbp
    21b2:	48 83 ec 30          	sub    $0x30,%rsp
    21b6:	48 89 7d d8          	mov    %rdi,-0x28(%rbp)
    21ba:	48 89 75 d0          	mov    %rsi,-0x30(%rbp)
    (void)page_count;
    return 0;
#else
    int rc;

    if (start_address == NULL)
    21be:	48 83 7d d8 00       	cmpq   $0x0,-0x28(%rbp)
    21c3:	75 07                	jne    21cc <apply_pages_within_exception+0x1e>
        return -1;
    21c5:	b8 ff ff ff ff       	mov    $0xffffffff,%eax
    21ca:	eb 61                	jmp    222d <apply_pages_within_exception+0x7f>
    
    if (check_dynamic_range(start_address, page_count, NULL, NULL) != 0)
    21cc:	48 8b 75 d0          	mov    -0x30(%rbp),%rsi
    21d0:	48 8b 45 d8          	mov    -0x28(%rbp),%rax
    21d4:	b9 00 00 00 00       	mov    $0x0,%ecx
    21d9:	ba 00 00 00 00       	mov    $0x0,%edx
    21de:	48 89 c7             	mov    %rax,%rdi
    21e1:	e8 f8 fb ff ff       	callq  1dde <_ZL19check_dynamic_rangePvmPmP24dynamic_flags_attributes>
    21e6:	85 c0                	test   %eax,%eax
    21e8:	0f 95 c0             	setne  %al
    21eb:	84 c0                	test   %al,%al
    21ed:	74 07                	je     21f6 <apply_pages_within_exception+0x48>
        return -1;
    21ef:	b8 ff ff ff ff       	mov    $0xffffffff,%eax
    21f4:	eb 37                	jmp    222d <apply_pages_within_exception+0x7f>

    size_t start = (size_t)start_address;
    21f6:	48 8b 45 d8          	mov    -0x28(%rbp),%rax
    21fa:	48 89 45 f0          	mov    %rax,-0x10(%rbp)
    size_t end = start + (page_count << SE_PAGE_SHIFT);
    21fe:	48 8b 45 d0          	mov    -0x30(%rbp),%rax
    2202:	48 c1 e0 0c          	shl    $0xc,%rax
    2206:	48 89 c2             	mov    %rax,%rdx
    2209:	48 8b 45 f0          	mov    -0x10(%rbp),%rax
    220d:	48 01 d0             	add    %rdx,%rax
    2210:	48 89 45 f8          	mov    %rax,-0x8(%rbp)

    rc = sgx_accept_forward_within_exception(start, end);
    2214:	48 8b 55 f8          	mov    -0x8(%rbp),%rdx
    2218:	48 8b 45 f0          	mov    -0x10(%rbp),%rax
    221c:	48 89 d6             	mov    %rdx,%rsi
    221f:	48 89 c7             	mov    %rax,%rdi
    2222:	e8 43 f6 ff ff       	callq  186a <_ZL35sgx_accept_forward_within_exceptionmm>
    2227:	89 45 ec             	mov    %eax,-0x14(%rbp)

    return rc;
    222a:	8b 45 ec             	mov    -0x14(%rbp),%eax
#endif

}
    222d:	c9                   	leaveq 
    222e:	c3                   	retq   

000000000000222f <apply_EPC_pages>:

// High level API to EACCEPT pages
int apply_EPC_pages(void *start_address, size_t page_count)
{
    222f:	55                   	push   %rbp
    2230:	48 89 e5             	mov    %rsp,%rbp
    2233:	48 83 ec 50          	sub    $0x50,%rsp
    2237:	48 89 7d b8          	mov    %rdi,-0x48(%rbp)
    223b:	48 89 75 b0          	mov    %rsi,-0x50(%rbp)
    223f:	64 48 8b 04 25 28 00 	mov    %fs:0x28,%rax
    2246:	00 00 
    2248:	48 89 45 f8          	mov    %rax,-0x8(%rbp)
    224c:	31 c0                	xor    %eax,%eax
    return 0;
#else
    int rc;
    struct dynamic_flags_attributes fa;

    if (start_address == NULL)
    224e:	48 83 7d b8 00       	cmpq   $0x0,-0x48(%rbp)
    2253:	75 0a                	jne    225f <apply_EPC_pages+0x30>
        return -1;
    2255:	b8 ff ff ff ff       	mov    $0xffffffff,%eax
    225a:	e9 8d 00 00 00       	jmpq   22ec <apply_EPC_pages+0xbd>
    
    if (check_dynamic_range(start_address, page_count, NULL, &fa) != 0)
    225f:	48 8d 55 e0          	lea    -0x20(%rbp),%rdx
    2263:	48 8b 75 b0          	mov    -0x50(%rbp),%rsi
    2267:	48 8b 45 b8          	mov    -0x48(%rbp),%rax
    226b:	48 89 d1             	mov    %rdx,%rcx
    226e:	ba 00 00 00 00       	mov    $0x0,%edx
    2273:	48 89 c7             	mov    %rax,%rdi
    2276:	e8 63 fb ff ff       	callq  1dde <_ZL19check_dynamic_rangePvmPmP24dynamic_flags_attributes>
    227b:	85 c0                	test   %eax,%eax
    227d:	0f 95 c0             	setne  %al
    2280:	84 c0                	test   %al,%al
    2282:	74 07                	je     228b <apply_EPC_pages+0x5c>
        return -1;
    2284:	b8 ff ff ff ff       	mov    $0xffffffff,%eax
    2289:	eb 61                	jmp    22ec <apply_EPC_pages+0xbd>

    size_t start = (size_t)start_address;
    228b:	48 8b 45 b8          	mov    -0x48(%rbp),%rax
    228f:	48 89 45 d0          	mov    %rax,-0x30(%rbp)
    size_t end = start + (page_count << SE_PAGE_SHIFT);
    2293:	48 8b 45 b0          	mov    -0x50(%rbp),%rax
    2297:	48 c1 e0 0c          	shl    $0xc,%rax
    229b:	48 89 c2             	mov    %rax,%rdx
    229e:	48 8b 45 d0          	mov    -0x30(%rbp),%rax
    22a2:	48 01 d0             	add    %rdx,%rax
    22a5:	48 89 45 d8          	mov    %rax,-0x28(%rbp)

    if (fa.attributes & PAGE_DIR_GROW_DOWN)
    22a9:	0f b7 45 e8          	movzwl -0x18(%rbp),%eax
    22ad:	0f b7 c0             	movzwl %ax,%eax
    22b0:	83 e0 40             	and    $0x40,%eax
    22b3:	85 c0                	test   %eax,%eax
    22b5:	74 1a                	je     22d1 <apply_EPC_pages+0xa2>
    {
        rc = sgx_accept_forward(SI_FLAGS_RW | SI_FLAG_PENDING, start, end);
    22b7:	48 8b 55 d8          	mov    -0x28(%rbp),%rdx
    22bb:	48 8b 45 d0          	mov    -0x30(%rbp),%rax
    22bf:	48 89 c6             	mov    %rax,%rsi
    22c2:	bf 0b 02 00 00       	mov    $0x20b,%edi
    22c7:	e8 db fd ff ff       	callq  20a7 <sgx_accept_forward>
    22cc:	89 45 cc             	mov    %eax,-0x34(%rbp)
    22cf:	eb 18                	jmp    22e9 <apply_EPC_pages+0xba>
    }
    else
    {
        rc = sgx_accept_backward(SI_FLAGS_RW | SI_FLAG_PENDING, start, end);
    22d1:	48 8b 55 d8          	mov    -0x28(%rbp),%rdx
    22d5:	48 8b 45 d0          	mov    -0x30(%rbp),%rax
    22d9:	48 89 c6             	mov    %rax,%rsi
    22dc:	bf 0b 02 00 00       	mov    $0x20b,%edi
    22e1:	e8 7f f4 ff ff       	callq  1765 <_ZL19sgx_accept_backwardmmm>
    22e6:	89 45 cc             	mov    %eax,-0x34(%rbp)
    }

    return rc;
    22e9:	8b 45 cc             	mov    -0x34(%rbp),%eax
#endif
}
    22ec:	48 8b 4d f8          	mov    -0x8(%rbp),%rcx
    22f0:	64 48 33 0c 25 28 00 	xor    %fs:0x28,%rcx
    22f7:	00 00 
    22f9:	74 05                	je     2300 <apply_EPC_pages+0xd1>
    22fb:	e8 da 2f 00 00       	callq  52da <__stack_chk_fail>
    2300:	c9                   	leaveq 
    2301:	c3                   	retq   

0000000000002302 <trim_EPC_pages>:

// High level API to trim previously EAUG-ed pages.
int trim_EPC_pages(void *start_address, size_t page_count)
{
    2302:	55                   	push   %rbp
    2303:	48 89 e5             	mov    %rsp,%rbp
    2306:	48 83 ec 30          	sub    $0x30,%rsp
    230a:	48 89 7d d8          	mov    %rdi,-0x28(%rbp)
    230e:	48 89 75 d0          	mov    %rsi,-0x30(%rbp)
    (void)page_count;
    return 0;
#else
    int rc;

    if (start_address == NULL)
    2312:	48 83 7d d8 00       	cmpq   $0x0,-0x28(%rbp)
    2317:	75 0a                	jne    2323 <trim_EPC_pages+0x21>
        return -1;
    2319:	b8 ff ff ff ff       	mov    $0xffffffff,%eax
    231e:	e9 16 01 00 00       	jmpq   2439 <trim_EPC_pages+0x137>

    // check range
    if (check_dynamic_range(start_address, page_count, NULL, NULL) != 0)
    2323:	48 8b 75 d0          	mov    -0x30(%rbp),%rsi
    2327:	48 8b 45 d8          	mov    -0x28(%rbp),%rax
    232b:	b9 00 00 00 00       	mov    $0x0,%ecx
    2330:	ba 00 00 00 00       	mov    $0x0,%edx
    2335:	48 89 c7             	mov    %rax,%rdi
    2338:	e8 a1 fa ff ff       	callq  1dde <_ZL19check_dynamic_rangePvmPmP24dynamic_flags_attributes>
    233d:	85 c0                	test   %eax,%eax
    233f:	0f 95 c0             	setne  %al
    2342:	84 c0                	test   %al,%al
    2344:	74 0a                	je     2350 <trim_EPC_pages+0x4e>
        return -1;
    2346:	b8 ff ff ff ff       	mov    $0xffffffff,%eax
    234b:	e9 e9 00 00 00       	jmpq   2439 <trim_EPC_pages+0x137>

    size_t start = (size_t)start_address;
    2350:	48 8b 45 d8          	mov    -0x28(%rbp),%rax
    2354:	48 89 45 f0          	mov    %rax,-0x10(%rbp)
    size_t end = start + (page_count << SE_PAGE_SHIFT);
    2358:	48 8b 45 d0          	mov    -0x30(%rbp),%rax
    235c:	48 c1 e0 0c          	shl    $0xc,%rax
    2360:	48 89 c2             	mov    %rax,%rdx
    2363:	48 8b 45 f0          	mov    -0x10(%rbp),%rax
    2367:	48 01 d0             	add    %rdx,%rax
    236a:	48 89 45 f8          	mov    %rax,-0x8(%rbp)

    // trim ocall
    rc = trim_range_ocall(start, end);
    236e:	48 8b 55 f8          	mov    -0x8(%rbp),%rdx
    2372:	48 8b 45 f0          	mov    -0x10(%rbp),%rax
    2376:	48 89 d6             	mov    %rdx,%rsi
    2379:	48 89 c7             	mov    %rax,%rdi
    237c:	e8 9f 14 00 00       	callq  3820 <trim_range_ocall>
    2381:	89 45 e4             	mov    %eax,-0x1c(%rbp)
    assert(rc == 0);
    2384:	83 7d e4 00          	cmpl   $0x0,-0x1c(%rbp)
    2388:	74 1f                	je     23a9 <trim_EPC_pages+0xa7>
    238a:	48 8d 0d 77 ac 00 00 	lea    0xac77(%rip),%rcx        # d008 <g_dyn_entry_table+0x8>
    2391:	48 8d 15 90 ac 00 00 	lea    0xac90(%rip),%rdx        # d028 <_ZZ14trim_EPC_pagesE8__func__>
    2398:	be 9e 01 00 00       	mov    $0x19e,%esi
    239d:	48 8d 3d 6c ac 00 00 	lea    0xac6c(%rip),%rdi        # d010 <g_dyn_entry_table+0x10>
    23a4:	e8 3a 2f 00 00       	callq  52e3 <__assert>

    rc = sgx_accept_forward(SI_FLAG_TRIM | SI_FLAG_MODIFIED, start, end);
    23a9:	48 8b 55 f8          	mov    -0x8(%rbp),%rdx
    23ad:	48 8b 45 f0          	mov    -0x10(%rbp),%rax
    23b1:	48 89 c6             	mov    %rax,%rsi
    23b4:	bf 10 04 00 00       	mov    $0x410,%edi
    23b9:	e8 e9 fc ff ff       	callq  20a7 <sgx_accept_forward>
    23be:	89 45 e4             	mov    %eax,-0x1c(%rbp)
    assert(rc == 0);
    23c1:	83 7d e4 00          	cmpl   $0x0,-0x1c(%rbp)
    23c5:	74 1f                	je     23e6 <trim_EPC_pages+0xe4>
    23c7:	48 8d 0d 3a ac 00 00 	lea    0xac3a(%rip),%rcx        # d008 <g_dyn_entry_table+0x8>
    23ce:	48 8d 15 53 ac 00 00 	lea    0xac53(%rip),%rdx        # d028 <_ZZ14trim_EPC_pagesE8__func__>
    23d5:	be a1 01 00 00       	mov    $0x1a1,%esi
    23da:	48 8d 3d 2f ac 00 00 	lea    0xac2f(%rip),%rdi        # d010 <g_dyn_entry_table+0x10>
    23e1:	e8 fd 2e 00 00       	callq  52e3 <__assert>
    
    // trim commit ocall
    size_t i = start;
    23e6:	48 8b 45 f0          	mov    -0x10(%rbp),%rax
    23ea:	48 89 45 e8          	mov    %rax,-0x18(%rbp)
    while (i < end)
    23ee:	48 8b 45 e8          	mov    -0x18(%rbp),%rax
    23f2:	48 3b 45 f8          	cmp    -0x8(%rbp),%rax
    23f6:	73 3e                	jae    2436 <trim_EPC_pages+0x134>
    {
        rc = trim_range_commit_ocall(i);
    23f8:	48 8b 45 e8          	mov    -0x18(%rbp),%rax
    23fc:	48 89 c7             	mov    %rax,%rdi
    23ff:	e8 91 14 00 00       	callq  3895 <trim_range_commit_ocall>
    2404:	89 45 e4             	mov    %eax,-0x1c(%rbp)
        assert(rc == 0);
    2407:	83 7d e4 00          	cmpl   $0x0,-0x1c(%rbp)
    240b:	74 1f                	je     242c <trim_EPC_pages+0x12a>
    240d:	48 8d 0d f4 ab 00 00 	lea    0xabf4(%rip),%rcx        # d008 <g_dyn_entry_table+0x8>
    2414:	48 8d 15 0d ac 00 00 	lea    0xac0d(%rip),%rdx        # d028 <_ZZ14trim_EPC_pagesE8__func__>
    241b:	be a8 01 00 00       	mov    $0x1a8,%esi
    2420:	48 8d 3d e9 ab 00 00 	lea    0xabe9(%rip),%rdi        # d010 <g_dyn_entry_table+0x10>
    2427:	e8 b7 2e 00 00       	callq  52e3 <__assert>
        i += SE_PAGE_SIZE;
    242c:	48 81 45 e8 00 10 00 	addq   $0x1000,-0x18(%rbp)
    2433:	00 
    while (i < end)
    2434:	eb b8                	jmp    23ee <trim_EPC_pages+0xec>
    }

    return rc;
    2436:	8b 45 e4             	mov    -0x1c(%rbp),%eax
#endif
}
    2439:	c9                   	leaveq 
    243a:	c3                   	retq   

000000000000243b <do_add_thread>:

// Create a thread dynamically.
// It will add necessary pages and transform one of them into type TCS.
sgx_status_t do_add_thread(void *ptcs)
{
    243b:	55                   	push   %rbp
    243c:	48 89 e5             	mov    %rsp,%rbp
    243f:	48 83 ec 50          	sub    $0x50,%rsp
    2443:	48 89 7d b8          	mov    %rdi,-0x48(%rbp)
    2447:	64 48 8b 04 25 28 00 	mov    %fs:0x28,%rax
    244e:	00 00 
    2450:	48 89 45 f8          	mov    %rax,-0x8(%rbp)
    2454:	31 c0                	xor    %eax,%eax
#ifdef SE_SIM
    (void)ptcs;
    return SGX_SUCCESS;
#else
    int ret = SGX_ERROR_UNEXPECTED;
    2456:	c7 45 c4 01 00 00 00 	movl   $0x1,-0x3c(%rbp)
    tcs_t *tcs = (tcs_t *)ptcs;
    245d:	48 8b 45 b8          	mov    -0x48(%rbp),%rax
    2461:	48 89 45 d0          	mov    %rax,-0x30(%rbp)
    tcs_t *tcs_template = NULL;
    2465:	48 c7 45 d8 00 00 00 	movq   $0x0,-0x28(%rbp)
    246c:	00 
    size_t offset = 0;
    246d:	48 c7 45 c8 00 00 00 	movq   $0x0,-0x38(%rbp)
    2474:	00 
    size_t enclave_base = (size_t)get_enclave_base();
    2475:	e8 ea a1 00 00       	callq  c664 <get_enclave_base>
    247a:	48 89 45 e0          	mov    %rax,-0x20(%rbp)

    if ( 0 != check_dynamic_range((void *)tcs, 1, &offset, NULL))
    247e:	48 8d 55 c8          	lea    -0x38(%rbp),%rdx
    2482:	48 8b 45 d0          	mov    -0x30(%rbp),%rax
    2486:	b9 00 00 00 00       	mov    $0x0,%ecx
    248b:	be 01 00 00 00       	mov    $0x1,%esi
    2490:	48 89 c7             	mov    %rax,%rdi
    2493:	e8 46 f9 ff ff       	callq  1dde <_ZL19check_dynamic_rangePvmPmP24dynamic_flags_attributes>
    2498:	85 c0                	test   %eax,%eax
    249a:	0f 95 c0             	setne  %al
    249d:	84 c0                	test   %al,%al
    249f:	74 0a                	je     24ab <do_add_thread+0x70>
        return SGX_ERROR_UNEXPECTED;
    24a1:	b8 01 00 00 00       	mov    $0x1,%eax
    24a6:	e9 bb 01 00 00       	jmpq   2666 <do_add_thread+0x22b>

    // check if the tcs provided exactly matches the one in signtool
    const volatile layout_t *tcs_layout = get_dynamic_layout_by_id(LAYOUT_ID_TCS_DYN);
    24ab:	bf 0e 00 00 00       	mov    $0xe,%edi
    24b0:	e8 e0 f4 ff ff       	callq  1995 <_Z24get_dynamic_layout_by_idt>
    24b5:	48 89 45 e8          	mov    %rax,-0x18(%rbp)
    if (!tcs_layout)
    24b9:	48 83 7d e8 00       	cmpq   $0x0,-0x18(%rbp)
    24be:	75 0a                	jne    24ca <do_add_thread+0x8f>
        return SGX_ERROR_UNEXPECTED;
    24c0:	b8 01 00 00 00       	mov    $0x1,%eax
    24c5:	e9 9c 01 00 00       	jmpq   2666 <do_add_thread+0x22b>

    if ((size_t)(enclave_base + tcs_layout->entry.rva + offset) != (size_t)(tcs))
    24ca:	48 8b 45 e8          	mov    -0x18(%rbp),%rax
    24ce:	48 8b 50 08          	mov    0x8(%rax),%rdx
    24d2:	48 8b 45 e0          	mov    -0x20(%rbp),%rax
    24d6:	48 01 c2             	add    %rax,%rdx
    24d9:	48 8b 45 c8          	mov    -0x38(%rbp),%rax
    24dd:	48 01 c2             	add    %rax,%rdx
    24e0:	48 8b 45 d0          	mov    -0x30(%rbp),%rax
    24e4:	48 39 c2             	cmp    %rax,%rdx
    24e7:	0f 95 c0             	setne  %al
    24ea:	84 c0                	test   %al,%al
    24ec:	74 0a                	je     24f8 <do_add_thread+0xbd>
        return SGX_ERROR_UNEXPECTED;
    24ee:	b8 01 00 00 00       	mov    $0x1,%eax
    24f3:	e9 6e 01 00 00       	jmpq   2666 <do_add_thread+0x22b>

    // adding page for all the dynamic entries
    for (uint16_t id = LAYOUT_ID_TCS_DYN; id <= LAYOUT_ID_STACK_DYN_MIN; id++)
    24f8:	66 c7 45 c2 0e 00    	movw   $0xe,-0x3e(%rbp)
    24fe:	66 83 7d c2 12       	cmpw   $0x12,-0x3e(%rbp)
    2503:	0f 87 85 00 00 00    	ja     258e <do_add_thread+0x153>
    {
        const volatile layout_t *layout =  get_dynamic_layout_by_id(id);
    2509:	0f b7 45 c2          	movzwl -0x3e(%rbp),%eax
    250d:	89 c7                	mov    %eax,%edi
    250f:	e8 81 f4 ff ff       	callq  1995 <_Z24get_dynamic_layout_by_idt>
    2514:	48 89 45 f0          	mov    %rax,-0x10(%rbp)
        if (layout && (layout->entry.attributes & PAGE_ATTR_DYN_THREAD))
    2518:	48 83 7d f0 00       	cmpq   $0x0,-0x10(%rbp)
    251d:	74 19                	je     2538 <do_add_thread+0xfd>
    251f:	48 8b 45 f0          	mov    -0x10(%rbp),%rax
    2523:	0f b7 40 02          	movzwl 0x2(%rax),%eax
    2527:	0f b7 c0             	movzwl %ax,%eax
    252a:	83 e0 20             	and    $0x20,%eax
    252d:	85 c0                	test   %eax,%eax
    252f:	74 07                	je     2538 <do_add_thread+0xfd>
    2531:	b8 01 00 00 00       	mov    $0x1,%eax
    2536:	eb 05                	jmp    253d <do_add_thread+0x102>
    2538:	b8 00 00 00 00       	mov    $0x0,%eax
    253d:	84 c0                	test   %al,%al
    253f:	74 3d                	je     257e <do_add_thread+0x143>
        {
            ret = apply_EPC_pages((void *)(enclave_base + layout->entry.rva + offset), layout->entry.page_count);
    2541:	48 8b 45 f0          	mov    -0x10(%rbp),%rax
    2545:	8b 40 04             	mov    0x4(%rax),%eax
    2548:	89 c1                	mov    %eax,%ecx
    254a:	48 8b 45 f0          	mov    -0x10(%rbp),%rax
    254e:	48 8b 50 08          	mov    0x8(%rax),%rdx
    2552:	48 8b 45 e0          	mov    -0x20(%rbp),%rax
    2556:	48 01 c2             	add    %rax,%rdx
    2559:	48 8b 45 c8          	mov    -0x38(%rbp),%rax
    255d:	48 01 d0             	add    %rdx,%rax
    2560:	48 89 ce             	mov    %rcx,%rsi
    2563:	48 89 c7             	mov    %rax,%rdi
    2566:	e8 c4 fc ff ff       	callq  222f <apply_EPC_pages>
    256b:	89 45 c4             	mov    %eax,-0x3c(%rbp)
            if (ret != 0)
    256e:	83 7d c4 00          	cmpl   $0x0,-0x3c(%rbp)
    2572:	74 0a                	je     257e <do_add_thread+0x143>
                return SGX_ERROR_UNEXPECTED;
    2574:	b8 01 00 00 00       	mov    $0x1,%eax
    2579:	e9 e8 00 00 00       	jmpq   2666 <do_add_thread+0x22b>
    for (uint16_t id = LAYOUT_ID_TCS_DYN; id <= LAYOUT_ID_STACK_DYN_MIN; id++)
    257e:	0f b7 45 c2          	movzwl -0x3e(%rbp),%eax
    2582:	83 c0 01             	add    $0x1,%eax
    2585:	66 89 45 c2          	mov    %ax,-0x3e(%rbp)
    2589:	e9 70 ff ff ff       	jmpq   24fe <do_add_thread+0xc3>
        }
    }

    //Copy and initialize TCS
    tcs_template = (tcs_t *)g_global_data.tcs_template;
    258e:	48 8d 05 eb ab 00 00 	lea    0xabeb(%rip),%rax        # d180 <g_global_data>
    2595:	48 8d 80 e0 00 00 00 	lea    0xe0(%rax),%rax
    259c:	48 89 45 d8          	mov    %rax,-0x28(%rbp)
    memcpy_s(tcs, TCS_SIZE, tcs_template, sizeof(g_global_data.tcs_template));
    25a0:	48 8b 55 d8          	mov    -0x28(%rbp),%rdx
    25a4:	48 8b 45 d0          	mov    -0x30(%rbp),%rax
    25a8:	b9 48 00 00 00       	mov    $0x48,%ecx
    25ad:	be 00 10 00 00       	mov    $0x1000,%esi
    25b2:	48 89 c7             	mov    %rax,%rdi
    25b5:	e8 64 f1 ff ff       	callq  171e <memcpy_s>

    //Adjust the tcs fields
    tcs->ossa = (size_t)GET_PTR(size_t, (void *)tcs, tcs->ossa) - enclave_base;
    25ba:	48 8b 45 d0          	mov    -0x30(%rbp),%rax
    25be:	48 8b 50 10          	mov    0x10(%rax),%rdx
    25c2:	48 8b 45 d0          	mov    -0x30(%rbp),%rax
    25c6:	48 01 d0             	add    %rdx,%rax
    25c9:	48 2b 45 e0          	sub    -0x20(%rbp),%rax
    25cd:	48 89 c2             	mov    %rax,%rdx
    25d0:	48 8b 45 d0          	mov    -0x30(%rbp),%rax
    25d4:	48 89 50 10          	mov    %rdx,0x10(%rax)
    tcs->ofs_base = (size_t)GET_PTR(size_t, (void *)tcs, tcs->ofs_base) - enclave_base;
    25d8:	48 8b 45 d0          	mov    -0x30(%rbp),%rax
    25dc:	48 8b 50 30          	mov    0x30(%rax),%rdx
    25e0:	48 8b 45 d0          	mov    -0x30(%rbp),%rax
    25e4:	48 01 d0             	add    %rdx,%rax
    25e7:	48 2b 45 e0          	sub    -0x20(%rbp),%rax
    25eb:	48 89 c2             	mov    %rax,%rdx
    25ee:	48 8b 45 d0          	mov    -0x30(%rbp),%rax
    25f2:	48 89 50 30          	mov    %rdx,0x30(%rax)
    tcs->ogs_base = (size_t)GET_PTR(size_t, (void *)tcs, tcs->ogs_base) - enclave_base;
    25f6:	48 8b 45 d0          	mov    -0x30(%rbp),%rax
    25fa:	48 8b 50 38          	mov    0x38(%rax),%rdx
    25fe:	48 8b 45 d0          	mov    -0x30(%rbp),%rax
    2602:	48 01 d0             	add    %rdx,%rax
    2605:	48 2b 45 e0          	sub    -0x20(%rbp),%rax
    2609:	48 89 c2             	mov    %rax,%rdx
    260c:	48 8b 45 d0          	mov    -0x30(%rbp),%rax
    2610:	48 89 50 38          	mov    %rdx,0x38(%rax)

    //OCALL for MKTCS
    ret = sgx_ocall(0, tcs);
    2614:	48 8b 45 d0          	mov    -0x30(%rbp),%rax
    2618:	48 89 c6             	mov    %rax,%rsi
    261b:	bf 00 00 00 00       	mov    $0x0,%edi
    2620:	e8 1d 10 00 00       	callq  3642 <sgx_ocall>
    2625:	89 45 c4             	mov    %eax,-0x3c(%rbp)
    if (ret != 0)
    2628:	83 7d c4 00          	cmpl   $0x0,-0x3c(%rbp)
    262c:	74 07                	je     2635 <do_add_thread+0x1fa>
        return SGX_ERROR_UNEXPECTED;
    262e:	b8 01 00 00 00       	mov    $0x1,%eax
    2633:	eb 31                	jmp    2666 <do_add_thread+0x22b>

    //EACCEPT for MKTCS
    ret = sgx_accept_backward(SI_FLAG_TCS | SI_FLAG_MODIFIED, (size_t)tcs, (size_t)tcs + SE_PAGE_SIZE);
    2635:	48 8b 45 d0          	mov    -0x30(%rbp),%rax
    2639:	48 8d 90 00 10 00 00 	lea    0x1000(%rax),%rdx
    2640:	48 8b 45 d0          	mov    -0x30(%rbp),%rax
    2644:	48 89 c6             	mov    %rax,%rsi
    2647:	bf 10 01 00 00       	mov    $0x110,%edi
    264c:	e8 14 f1 ff ff       	callq  1765 <_ZL19sgx_accept_backwardmmm>
    2651:	89 45 c4             	mov    %eax,-0x3c(%rbp)
    if (ret != 0)
    2654:	83 7d c4 00          	cmpl   $0x0,-0x3c(%rbp)
    2658:	74 07                	je     2661 <do_add_thread+0x226>
        return SGX_ERROR_UNEXPECTED;
    265a:	b8 01 00 00 00       	mov    $0x1,%eax
    265f:	eb 05                	jmp    2666 <do_add_thread+0x22b>

    return SGX_SUCCESS;
    2661:	b8 00 00 00 00       	mov    $0x0,%eax

#endif
}
    2666:	48 8b 4d f8          	mov    -0x8(%rbp),%rcx
    266a:	64 48 33 0c 25 28 00 	xor    %fs:0x28,%rcx
    2671:	00 00 
    2673:	74 05                	je     267a <do_add_thread+0x23f>
    2675:	e8 60 2c 00 00       	callq  52da <__stack_chk_fail>
    267a:	c9                   	leaveq 
    267b:	c3                   	retq   

000000000000267c <memcpy_s>:
{
    267c:	55                   	push   %rbp
    267d:	48 89 e5             	mov    %rsp,%rbp
    2680:	48 83 ec 20          	sub    $0x20,%rsp
    2684:	48 89 7d f8          	mov    %rdi,-0x8(%rbp)
    2688:	48 89 75 f0          	mov    %rsi,-0x10(%rbp)
    268c:	48 89 55 e8          	mov    %rdx,-0x18(%rbp)
    2690:	48 89 4d e0          	mov    %rcx,-0x20(%rbp)
    if(numberOfElements<count)
    2694:	48 8b 45 f0          	mov    -0x10(%rbp),%rax
    2698:	48 3b 45 e0          	cmp    -0x20(%rbp),%rax
    269c:	73 07                	jae    26a5 <memcpy_s+0x29>
        return -1;
    269e:	b8 ff ff ff ff       	mov    $0xffffffff,%eax
    26a3:	eb 1c                	jmp    26c1 <memcpy_s+0x45>
    memcpy(dest, src, count);
    26a5:	48 8b 55 e0          	mov    -0x20(%rbp),%rdx
    26a9:	48 8b 4d e8          	mov    -0x18(%rbp),%rcx
    26ad:	48 8b 45 f8          	mov    -0x8(%rbp),%rax
    26b1:	48 89 ce             	mov    %rcx,%rsi
    26b4:	48 89 c7             	mov    %rax,%rdi
    26b7:	e8 76 88 00 00       	callq  af32 <memcpy>
    return 0;
    26bc:	b8 00 00 00 00       	mov    $0x0,%eax
}
    26c1:	c9                   	leaveq 
    26c2:	c3                   	retq   

00000000000026c3 <_pthread_thread_run>:

#include "pthread_imp.h"
#include "sgx_random_buffers.h"
#include "se_page_attr.h"

__attribute__((weak)) sgx_status_t _pthread_thread_run(void* ms) {UNUSED(ms); return SGX_SUCCESS;}
    26c3:	55                   	push   %rbp
    26c4:	48 89 e5             	mov    %rsp,%rbp
    26c7:	48 89 7d f8          	mov    %rdi,-0x8(%rbp)
    26cb:	b8 00 00 00 00       	mov    $0x0,%eax
    26d0:	5d                   	pop    %rbp
    26d1:	c3                   	retq   

00000000000026d2 <_Z16_pthread_enabledv>:
__attribute__((weak)) bool _pthread_enabled() {return false;}
    26d2:	55                   	push   %rbp
    26d3:	48 89 e5             	mov    %rsp,%rbp
    26d6:	b8 00 00 00 00       	mov    $0x0,%eax
    26db:	5d                   	pop    %rbp
    26dc:	c3                   	retq   

00000000000026dd <_Z24_pthread_tls_store_state9_status_t>:
__attribute__((weak)) void _pthread_tls_store_state(sgx_status_t state) {UNUSED(state);}
    26dd:	55                   	push   %rbp
    26de:	48 89 e5             	mov    %rsp,%rbp
    26e1:	89 7d fc             	mov    %edi,-0x4(%rbp)
    26e4:	90                   	nop
    26e5:	5d                   	pop    %rbp
    26e6:	c3                   	retq   

00000000000026e7 <_Z22_pthread_tls_get_statev>:
__attribute__((weak)) sgx_status_t _pthread_tls_get_state(void) {return SGX_SUCCESS;}
    26e7:	55                   	push   %rbp
    26e8:	48 89 e5             	mov    %rsp,%rbp
    26eb:	b8 00 00 00 00       	mov    $0x0,%eax
    26f0:	5d                   	pop    %rbp
    26f1:	c3                   	retq   

00000000000026f2 <_Z26_pthread_tls_store_contextPv>:
__attribute__((weak)) void _pthread_tls_store_context(void* context) {UNUSED(context);}
    26f2:	55                   	push   %rbp
    26f3:	48 89 e5             	mov    %rsp,%rbp
    26f6:	48 89 7d f8          	mov    %rdi,-0x8(%rbp)
    26fa:	90                   	nop
    26fb:	5d                   	pop    %rbp
    26fc:	c3                   	retq   

00000000000026fd <_Z20_pthread_wakeup_joinPv>:
__attribute__((weak)) void _pthread_wakeup_join(void* ms) {UNUSED(ms);}
    26fd:	55                   	push   %rbp
    26fe:	48 89 e5             	mov    %rsp,%rbp
    2701:	48 89 7d f8          	mov    %rdi,-0x8(%rbp)
    2705:	90                   	nop
    2706:	5d                   	pop    %rbp
    2707:	c3                   	retq   

0000000000002708 <_Z24_pthread_tls_destructorsv>:
__attribute__((weak)) void _pthread_tls_destructors(void) {}
    2708:	55                   	push   %rbp
    2709:	48 89 e5             	mov    %rsp,%rbp
    270c:	90                   	nop
    270d:	5d                   	pop    %rbp
    270e:	c3                   	retq   

000000000000270f <_ZL16is_ecall_allowedj>:

// is_ecall_allowed()
// check the index in the dynamic entry table
static sgx_status_t is_ecall_allowed(uint32_t ordinal)
{
    270f:	55                   	push   %rbp
    2710:	48 89 e5             	mov    %rsp,%rbp
    2713:	48 83 ec 30          	sub    $0x30,%rsp
    2717:	89 7d dc             	mov    %edi,-0x24(%rbp)
    if(ordinal >= g_ecall_table.nr_ecall)
    271a:	8b 55 dc             	mov    -0x24(%rbp),%edx
    271d:	48 8d 05 9c e6 00 00 	lea    0xe69c(%rip),%rax        # 10dc0 <g_ecall_table>
    2724:	48 8b 00             	mov    (%rax),%rax
    2727:	48 39 c2             	cmp    %rax,%rdx
    272a:	72 0a                	jb     2736 <_ZL16is_ecall_allowedj+0x27>
    {
        return SGX_ERROR_INVALID_FUNCTION;
    272c:	b8 01 10 00 00       	mov    $0x1001,%eax
    2731:	e9 c7 00 00 00       	jmpq   27fd <_ZL16is_ecall_allowedj+0xee>
    }
    thread_data_t *thread_data = get_thread_data();
    2736:	e8 64 9f 00 00       	callq  c69f <get_thread_data>
    273b:	48 89 45 e8          	mov    %rax,-0x18(%rbp)

    sgx_lfence();
    273f:	0f ae e8             	lfence 

    if(thread_data->last_sp == thread_data->stack_base_addr)
    2742:	48 8b 45 e8          	mov    -0x18(%rbp),%rax
    2746:	48 8b 50 08          	mov    0x8(%rax),%rdx
    274a:	48 8b 45 e8          	mov    -0x18(%rbp),%rax
    274e:	48 8b 40 10          	mov    0x10(%rax),%rax
    2752:	48 39 c2             	cmp    %rax,%rdx
    2755:	75 2d                	jne    2784 <_ZL16is_ecall_allowedj+0x75>
    {
        // root ECALL, check the priv bits.
        if (g_ecall_table.ecall_table[ordinal].is_priv)
    2757:	48 8d 05 62 e6 00 00 	lea    0xe662(%rip),%rax        # 10dc0 <g_ecall_table>
    275e:	8b 55 dc             	mov    -0x24(%rbp),%edx
    2761:	48 c1 e2 04          	shl    $0x4,%rdx
    2765:	48 01 d0             	add    %rdx,%rax
    2768:	48 83 c0 10          	add    $0x10,%rax
    276c:	0f b6 00             	movzbl (%rax),%eax
    276f:	84 c0                	test   %al,%al
    2771:	74 0a                	je     277d <_ZL16is_ecall_allowedj+0x6e>
            return SGX_ERROR_ECALL_NOT_ALLOWED;
    2773:	b8 07 10 00 00       	mov    $0x1007,%eax
    2778:	e9 80 00 00 00       	jmpq   27fd <_ZL16is_ecall_allowedj+0xee>
        return SGX_SUCCESS;
    277d:	b8 00 00 00 00       	mov    $0x0,%eax
    2782:	eb 79                	jmp    27fd <_ZL16is_ecall_allowedj+0xee>
    }
    ocall_context_t *context = reinterpret_cast<ocall_context_t*>(thread_data->last_sp);
    2784:	48 8b 45 e8          	mov    -0x18(%rbp),%rax
    2788:	48 8b 40 08          	mov    0x8(%rax),%rax
    278c:	48 89 45 f0          	mov    %rax,-0x10(%rbp)
    if(context->ocall_flag != OCALL_FLAG)
    2790:	48 8b 45 f0          	mov    -0x10(%rbp),%rax
    2794:	48 8b 40 20          	mov    0x20(%rax),%rax
    2798:	48 3d 44 49 43 4f    	cmp    $0x4f434944,%rax
    279e:	74 05                	je     27a5 <_ZL16is_ecall_allowedj+0x96>
    {
        // abort the enclave if ocall frame is invalid
        abort();
    27a0:	e8 29 a2 00 00       	callq  c9ce <abort>
    }
    uintptr_t ocall_index = context->ocall_index;
    27a5:	48 8b 45 f0          	mov    -0x10(%rbp),%rax
    27a9:	48 8b 40 28          	mov    0x28(%rax),%rax
    27ad:	48 89 45 f8          	mov    %rax,-0x8(%rbp)
    if(ocall_index >= g_dyn_entry_table.nr_ocall)
    27b1:	48 8d 05 48 a8 00 00 	lea    0xa848(%rip),%rax        # d000 <g_dyn_entry_table>
    27b8:	48 8b 00             	mov    (%rax),%rax
    27bb:	48 39 45 f8          	cmp    %rax,-0x8(%rbp)
    27bf:	72 07                	jb     27c8 <_ZL16is_ecall_allowedj+0xb9>
    {
        return SGX_ERROR_INVALID_FUNCTION;
    27c1:	b8 01 10 00 00       	mov    $0x1001,%eax
    27c6:	eb 35                	jmp    27fd <_ZL16is_ecall_allowedj+0xee>
    }
    return (g_dyn_entry_table.entry_table[ocall_index * g_ecall_table.nr_ecall + ordinal] ? SGX_SUCCESS : SGX_ERROR_ECALL_NOT_ALLOWED);
    27c8:	48 8d 05 f1 e5 00 00 	lea    0xe5f1(%rip),%rax        # 10dc0 <g_ecall_table>
    27cf:	48 8b 00             	mov    (%rax),%rax
    27d2:	48 0f af 45 f8       	imul   -0x8(%rbp),%rax
    27d7:	48 89 c2             	mov    %rax,%rdx
    27da:	8b 45 dc             	mov    -0x24(%rbp),%eax
    27dd:	48 01 c2             	add    %rax,%rdx
    27e0:	48 8d 05 19 a8 00 00 	lea    0xa819(%rip),%rax        # d000 <g_dyn_entry_table>
    27e7:	0f b6 44 10 08       	movzbl 0x8(%rax,%rdx,1),%eax
    27ec:	84 c0                	test   %al,%al
    27ee:	74 07                	je     27f7 <_ZL16is_ecall_allowedj+0xe8>
    27f0:	b8 00 00 00 00       	mov    $0x0,%eax
    27f5:	eb 05                	jmp    27fc <_ZL16is_ecall_allowedj+0xed>
    27f7:	b8 07 10 00 00       	mov    $0x1007,%eax
    27fc:	90                   	nop
}
    27fd:	c9                   	leaveq 
    27fe:	c3                   	retq   

00000000000027ff <_ZL13get_func_addrjPPv>:
// Return Value:
//      non-zero - success
//      zero - fail
//
static sgx_status_t get_func_addr(uint32_t ordinal, void **addr)
{
    27ff:	55                   	push   %rbp
    2800:	48 89 e5             	mov    %rsp,%rbp
    2803:	48 83 ec 20          	sub    $0x20,%rsp
    2807:	89 7d ec             	mov    %edi,-0x14(%rbp)
    280a:	48 89 75 e0          	mov    %rsi,-0x20(%rbp)
    if(ordinal == (uint32_t)ECMD_ECALL_PTHREAD)
    280e:	83 7d ec fa          	cmpl   $0xfffffffa,-0x14(%rbp)
    2812:	75 15                	jne    2829 <_ZL13get_func_addrjPPv+0x2a>
    {
        *addr = (void*) _pthread_thread_run;
    2814:	48 8b 45 e0          	mov    -0x20(%rbp),%rax
    2818:	48 8d 15 a4 fe ff ff 	lea    -0x15c(%rip),%rdx        # 26c3 <_pthread_thread_run>
    281f:	48 89 10             	mov    %rdx,(%rax)
        return SGX_SUCCESS;
    2822:	b8 00 00 00 00       	mov    $0x0,%eax
    2827:	eb 60                	jmp    2889 <_ZL13get_func_addrjPPv+0x8a>
    }

    // Normal user-defined ECalls
    sgx_status_t status = is_ecall_allowed(ordinal);
    2829:	8b 45 ec             	mov    -0x14(%rbp),%eax
    282c:	89 c7                	mov    %eax,%edi
    282e:	e8 dc fe ff ff       	callq  270f <_ZL16is_ecall_allowedj>
    2833:	89 45 fc             	mov    %eax,-0x4(%rbp)
    if(SGX_SUCCESS != status)
    2836:	83 7d fc 00          	cmpl   $0x0,-0x4(%rbp)
    283a:	74 05                	je     2841 <_ZL13get_func_addrjPPv+0x42>
    {
        return status;
    283c:	8b 45 fc             	mov    -0x4(%rbp),%eax
    283f:	eb 48                	jmp    2889 <_ZL13get_func_addrjPPv+0x8a>
    }

    *addr = const_cast<void *>(g_ecall_table.ecall_table[ordinal].ecall_addr);
    2841:	48 8d 05 78 e5 00 00 	lea    0xe578(%rip),%rax        # 10dc0 <g_ecall_table>
    2848:	8b 55 ec             	mov    -0x14(%rbp),%edx
    284b:	48 c1 e2 04          	shl    $0x4,%rdx
    284f:	48 01 d0             	add    %rdx,%rax
    2852:	48 83 c0 08          	add    $0x8,%rax
    2856:	48 8b 10             	mov    (%rax),%rdx
    2859:	48 8b 45 e0          	mov    -0x20(%rbp),%rax
    285d:	48 89 10             	mov    %rdx,(%rax)
    if(!sgx_is_within_enclave(*addr, 0))
    2860:	48 8b 45 e0          	mov    -0x20(%rbp),%rax
    2864:	48 8b 00             	mov    (%rax),%rax
    2867:	be 00 00 00 00       	mov    $0x0,%esi
    286c:	48 89 c7             	mov    %rax,%rdi
    286f:	e8 91 ea ff ff       	callq  1305 <sgx_is_within_enclave>
    2874:	85 c0                	test   %eax,%eax
    2876:	0f 94 c0             	sete   %al
    2879:	84 c0                	test   %al,%al
    287b:	74 07                	je     2884 <_ZL13get_func_addrjPPv+0x85>
    {
        return SGX_ERROR_UNEXPECTED;
    287d:	b8 01 00 00 00       	mov    $0x1,%eax
    2882:	eb 05                	jmp    2889 <_ZL13get_func_addrjPPv+0x8a>
    }

    return SGX_SUCCESS;
    2884:	b8 00 00 00 00       	mov    $0x0,%eax
}
    2889:	c9                   	leaveq 
    288a:	c3                   	retq   

000000000000288b <_Z11do_save_tcsPv>:
// Return Value:
//     zero - success
//     non-zero - fail
//
sgx_status_t do_save_tcs(void *ptcs)
{
    288b:	55                   	push   %rbp
    288c:	48 89 e5             	mov    %rsp,%rbp
    288f:	48 83 ec 30          	sub    $0x30,%rsp
    2893:	48 89 7d d8          	mov    %rdi,-0x28(%rbp)
    2897:	64 48 8b 04 25 28 00 	mov    %fs:0x28,%rax
    289e:	00 00 
    28a0:	48 89 45 f8          	mov    %rax,-0x8(%rbp)
    28a4:	31 c0                	xor    %eax,%eax
    if(!is_utility_thread())
    28a6:	e8 1c 14 00 00       	callq  3cc7 <is_utility_thread>
    28ab:	83 f0 01             	xor    $0x1,%eax
    28ae:	84 c0                	test   %al,%al
    28b0:	74 0a                	je     28bc <_Z11do_save_tcsPv+0x31>
        return SGX_ERROR_UNEXPECTED;
    28b2:	b8 01 00 00 00       	mov    $0x1,%eax
    28b7:	e9 b0 00 00 00       	jmpq   296c <_Z11do_save_tcsPv+0xe1>

    if(unlikely(g_tcs_cookie == 0))
    28bc:	48 8b 05 05 e8 00 00 	mov    0xe805(%rip),%rax        # 110c8 <_ZL12g_tcs_cookie>
    28c3:	48 85 c0             	test   %rax,%rax
    28c6:	0f 94 c0             	sete   %al
    28c9:	0f b6 c0             	movzbl %al,%eax
    28cc:	48 85 c0             	test   %rax,%rax
    28cf:	74 4b                	je     291c <_Z11do_save_tcsPv+0x91>
    {
        uintptr_t rand = 0;
    28d1:	48 c7 45 e8 00 00 00 	movq   $0x0,-0x18(%rbp)
    28d8:	00 
        do
        {
            if(SGX_SUCCESS != sgx_read_rand((unsigned char *)&rand, sizeof(rand)))
    28d9:	48 8d 45 e8          	lea    -0x18(%rbp),%rax
    28dd:	be 08 00 00 00       	mov    $0x8,%esi
    28e2:	48 89 c7             	mov    %rax,%rdi
    28e5:	e8 e1 ec ff ff       	callq  15cb <sgx_read_rand>
    28ea:	85 c0                	test   %eax,%eax
    28ec:	0f 95 c0             	setne  %al
    28ef:	84 c0                	test   %al,%al
    28f1:	74 07                	je     28fa <_Z11do_save_tcsPv+0x6f>
            {
                return SGX_ERROR_UNEXPECTED;
    28f3:	b8 01 00 00 00       	mov    $0x1,%eax
    28f8:	eb 72                	jmp    296c <_Z11do_save_tcsPv+0xe1>
            }
        } while(rand == 0);
    28fa:	48 8b 45 e8          	mov    -0x18(%rbp),%rax
    28fe:	48 85 c0             	test   %rax,%rax
    2901:	75 02                	jne    2905 <_Z11do_save_tcsPv+0x7a>
        do
    2903:	eb d4                	jmp    28d9 <_Z11do_save_tcsPv+0x4e>

        if(g_tcs_cookie == 0)
    2905:	48 8b 05 bc e7 00 00 	mov    0xe7bc(%rip),%rax        # 110c8 <_ZL12g_tcs_cookie>
    290c:	48 85 c0             	test   %rax,%rax
    290f:	75 0b                	jne    291c <_Z11do_save_tcsPv+0x91>
        {
            g_tcs_cookie = rand;
    2911:	48 8b 45 e8          	mov    -0x18(%rbp),%rax
    2915:	48 89 05 ac e7 00 00 	mov    %rax,0xe7ac(%rip)        # 110c8 <_ZL12g_tcs_cookie>
        }
    }

    tcs_node_t *tcs_node = (tcs_node_t *)malloc(sizeof(tcs_node_t));
    291c:	bf 10 00 00 00       	mov    $0x10,%edi
    2921:	e8 82 64 00 00       	callq  8da8 <dlmalloc>
    2926:	48 89 45 f0          	mov    %rax,-0x10(%rbp)
    if(!tcs_node)
    292a:	48 83 7d f0 00       	cmpq   $0x0,-0x10(%rbp)
    292f:	75 07                	jne    2938 <_Z11do_save_tcsPv+0xad>
    {
        return SGX_ERROR_UNEXPECTED;
    2931:	b8 01 00 00 00       	mov    $0x1,%eax
    2936:	eb 34                	jmp    296c <_Z11do_save_tcsPv+0xe1>
    }

    tcs_node->tcs = ENC_TCS_POINTER(ptcs);
    2938:	48 8b 55 d8          	mov    -0x28(%rbp),%rdx
    293c:	48 8b 05 85 e7 00 00 	mov    0xe785(%rip),%rax        # 110c8 <_ZL12g_tcs_cookie>
    2943:	48 31 c2             	xor    %rax,%rdx
    2946:	48 8b 45 f0          	mov    -0x10(%rbp),%rax
    294a:	48 89 10             	mov    %rdx,(%rax)

    tcs_node->next = g_tcs_node;
    294d:	48 8b 15 6c e7 00 00 	mov    0xe76c(%rip),%rdx        # 110c0 <_ZL10g_tcs_node>
    2954:	48 8b 45 f0          	mov    -0x10(%rbp),%rax
    2958:	48 89 50 08          	mov    %rdx,0x8(%rax)
    g_tcs_node = tcs_node;
    295c:	48 8b 45 f0          	mov    -0x10(%rbp),%rax
    2960:	48 89 05 59 e7 00 00 	mov    %rax,0xe759(%rip)        # 110c0 <_ZL10g_tcs_node>

    return SGX_SUCCESS;
    2967:	b8 00 00 00 00       	mov    $0x0,%eax
}
    296c:	48 8b 4d f8          	mov    -0x8(%rbp),%rcx
    2970:	64 48 33 0c 25 28 00 	xor    %fs:0x28,%rcx
    2977:	00 00 
    2979:	74 05                	je     2980 <_Z11do_save_tcsPv+0xf5>
    297b:	e8 5a 29 00 00       	callq  52da <__stack_chk_fail>
    2980:	c9                   	leaveq 
    2981:	c3                   	retq   

0000000000002982 <_ZL10do_del_tcsPv>:
//      [IN] ptcs - the tcs_t pointer which need to be deleted
// Return Value:
//     N/A
//
static void do_del_tcs(void *ptcs)
{
    2982:	55                   	push   %rbp
    2983:	48 89 e5             	mov    %rsp,%rbp
    2986:	48 83 ec 30          	sub    $0x30,%rsp
    298a:	48 89 7d d8          	mov    %rdi,-0x28(%rbp)
    if(!is_utility_thread())
    298e:	e8 34 13 00 00       	callq  3cc7 <is_utility_thread>
    2993:	83 f0 01             	xor    $0x1,%eax
    2996:	84 c0                	test   %al,%al
    2998:	0f 85 c1 00 00 00    	jne    2a5f <_ZL10do_del_tcsPv+0xdd>
        return;

    if (g_tcs_node != NULL)
    299e:	48 8b 05 1b e7 00 00 	mov    0xe71b(%rip),%rax        # 110c0 <_ZL10g_tcs_node>
    29a5:	48 85 c0             	test   %rax,%rax
    29a8:	0f 84 b2 00 00 00    	je     2a60 <_ZL10do_del_tcsPv+0xde>
    {
        if (DEC_TCS_POINTER(g_tcs_node->tcs) == ptcs)
    29ae:	48 8b 05 0b e7 00 00 	mov    0xe70b(%rip),%rax        # 110c0 <_ZL10g_tcs_node>
    29b5:	48 8b 10             	mov    (%rax),%rdx
    29b8:	48 8b 05 09 e7 00 00 	mov    0xe709(%rip),%rax        # 110c8 <_ZL12g_tcs_cookie>
    29bf:	48 31 d0             	xor    %rdx,%rax
    29c2:	48 39 45 d8          	cmp    %rax,-0x28(%rbp)
    29c6:	75 2b                	jne    29f3 <_ZL10do_del_tcsPv+0x71>
        {
            tcs_node_t *tmp = g_tcs_node;
    29c8:	48 8b 05 f1 e6 00 00 	mov    0xe6f1(%rip),%rax        # 110c0 <_ZL10g_tcs_node>
    29cf:	48 89 45 f8          	mov    %rax,-0x8(%rbp)
            g_tcs_node = g_tcs_node->next;
    29d3:	48 8b 05 e6 e6 00 00 	mov    0xe6e6(%rip),%rax        # 110c0 <_ZL10g_tcs_node>
    29da:	48 8b 40 08          	mov    0x8(%rax),%rax
    29de:	48 89 05 db e6 00 00 	mov    %rax,0xe6db(%rip)        # 110c0 <_ZL10g_tcs_node>
            free(tmp);
    29e5:	48 8b 45 f8          	mov    -0x8(%rbp),%rax
    29e9:	48 89 c7             	mov    %rax,%rdi
    29ec:	e8 ae 6e 00 00       	callq  989f <dlfree>
    29f1:	eb 6d                	jmp    2a60 <_ZL10do_del_tcsPv+0xde>
        }
        else
        {
            tcs_node_t *tcs_node = g_tcs_node->next;
    29f3:	48 8b 05 c6 e6 00 00 	mov    0xe6c6(%rip),%rax        # 110c0 <_ZL10g_tcs_node>
    29fa:	48 8b 40 08          	mov    0x8(%rax),%rax
    29fe:	48 89 45 e8          	mov    %rax,-0x18(%rbp)
            tcs_node_t *pre_tcs_node = g_tcs_node;
    2a02:	48 8b 05 b7 e6 00 00 	mov    0xe6b7(%rip),%rax        # 110c0 <_ZL10g_tcs_node>
    2a09:	48 89 45 f0          	mov    %rax,-0x10(%rbp)
            while (tcs_node != NULL)
    2a0d:	48 83 7d e8 00       	cmpq   $0x0,-0x18(%rbp)
    2a12:	74 4c                	je     2a60 <_ZL10do_del_tcsPv+0xde>
            {
                if (DEC_TCS_POINTER(tcs_node->tcs) == ptcs)
    2a14:	48 8b 45 e8          	mov    -0x18(%rbp),%rax
    2a18:	48 8b 10             	mov    (%rax),%rdx
    2a1b:	48 8b 05 a6 e6 00 00 	mov    0xe6a6(%rip),%rax        # 110c8 <_ZL12g_tcs_cookie>
    2a22:	48 31 d0             	xor    %rdx,%rax
    2a25:	48 39 45 d8          	cmp    %rax,-0x28(%rbp)
    2a29:	75 1e                	jne    2a49 <_ZL10do_del_tcsPv+0xc7>
                {
                    pre_tcs_node->next = tcs_node->next;
    2a2b:	48 8b 45 e8          	mov    -0x18(%rbp),%rax
    2a2f:	48 8b 50 08          	mov    0x8(%rax),%rdx
    2a33:	48 8b 45 f0          	mov    -0x10(%rbp),%rax
    2a37:	48 89 50 08          	mov    %rdx,0x8(%rax)
                    free(tcs_node);
    2a3b:	48 8b 45 e8          	mov    -0x18(%rbp),%rax
    2a3f:	48 89 c7             	mov    %rax,%rdi
    2a42:	e8 58 6e 00 00       	callq  989f <dlfree>
                    break;
    2a47:	eb 17                	jmp    2a60 <_ZL10do_del_tcsPv+0xde>
                }

                pre_tcs_node = tcs_node;
    2a49:	48 8b 45 e8          	mov    -0x18(%rbp),%rax
    2a4d:	48 89 45 f0          	mov    %rax,-0x10(%rbp)
                tcs_node = tcs_node->next;
    2a51:	48 8b 45 e8          	mov    -0x18(%rbp),%rax
    2a55:	48 8b 40 08          	mov    0x8(%rax),%rax
    2a59:	48 89 45 e8          	mov    %rax,-0x18(%rbp)
            while (tcs_node != NULL)
    2a5d:	eb ae                	jmp    2a0d <_ZL10do_del_tcsPv+0x8b>
        return;
    2a5f:	90                   	nop
            }
        }
    }
}
    2a60:	c9                   	leaveq 
    2a61:	c3                   	retq   

0000000000002a62 <_ZL10trts_ecalljPv>:
static volatile bool           g_is_first_ecall = true;
static volatile sgx_spinlock_t g_ife_lock       = SGX_SPINLOCK_INITIALIZER;

typedef sgx_status_t (*ecall_func_t)(void *ms);
static sgx_status_t trts_ecall(uint32_t ordinal, void *ms)
{
    2a62:	55                   	push   %rbp
    2a63:	48 89 e5             	mov    %rsp,%rbp
    2a66:	48 83 ec 40          	sub    $0x40,%rsp
    2a6a:	89 7d cc             	mov    %edi,-0x34(%rbp)
    2a6d:	48 89 75 c0          	mov    %rsi,-0x40(%rbp)
    2a71:	64 48 8b 04 25 28 00 	mov    %fs:0x28,%rax
    2a78:	00 00 
    2a7a:	48 89 45 f8          	mov    %rax,-0x8(%rbp)
    2a7e:	31 c0                	xor    %eax,%eax
    sgx_status_t status = SGX_ERROR_UNEXPECTED;
    2a80:	c7 45 d4 01 00 00 00 	movl   $0x1,-0x2c(%rbp)

    if (unlikely(g_is_first_ecall))
    2a87:	0f b6 05 72 e5 00 00 	movzbl 0xe572(%rip),%eax        # 11000 <_ZL16g_is_first_ecall>
    2a8e:	0f b6 c0             	movzbl %al,%eax
    2a91:	48 85 c0             	test   %rax,%rax
    2a94:	0f 95 c0             	setne  %al
    2a97:	84 c0                	test   %al,%al
    2a99:	0f 84 9a 00 00 00    	je     2b39 <_ZL10trts_ecalljPv+0xd7>
    {
        // The thread performing the global initialization cannot do a nested ECall
        thread_data_t *thread_data = get_thread_data();
    2a9f:	e8 fb 9b 00 00       	callq  c69f <get_thread_data>
    2aa4:	48 89 45 e0          	mov    %rax,-0x20(%rbp)
        if (thread_data->last_sp != thread_data->stack_base_addr)
    2aa8:	48 8b 45 e0          	mov    -0x20(%rbp),%rax
    2aac:	48 8b 50 08          	mov    0x8(%rax),%rdx
    2ab0:	48 8b 45 e0          	mov    -0x20(%rbp),%rax
    2ab4:	48 8b 40 10          	mov    0x10(%rax),%rax
    2ab8:	48 39 c2             	cmp    %rax,%rdx
    2abb:	74 0a                	je     2ac7 <_ZL10trts_ecalljPv+0x65>
        { // nested ecall
            return SGX_ERROR_ECALL_NOT_ALLOWED;
    2abd:	b8 07 10 00 00       	mov    $0x1007,%eax
    2ac2:	e9 b2 00 00 00       	jmpq   2b79 <_ZL10trts_ecalljPv+0x117>
        }

        sgx_spin_lock(&g_ife_lock);
    2ac7:	48 8d 3d 02 e6 00 00 	lea    0xe602(%rip),%rdi        # 110d0 <_ZL10g_ife_lock>
    2ace:	e8 2c 89 00 00       	callq  b3ff <sgx_spin_lock>
        if (g_is_first_ecall)
    2ad3:	0f b6 05 26 e5 00 00 	movzbl 0xe526(%rip),%eax        # 11000 <_ZL16g_is_first_ecall>
    2ada:	84 c0                	test   %al,%al
    2adc:	74 4f                	je     2b2d <_ZL10trts_ecalljPv+0xcb>
        {
#ifndef SE_SIM
            if(EDMM_supported)
    2ade:	48 8d 05 0b e3 00 00 	lea    0xe30b(%rip),%rax        # 10df0 <EDMM_supported>
    2ae5:	8b 00                	mov    (%rax),%eax
    2ae7:	85 c0                	test   %eax,%eax
    2ae9:	74 36                	je     2b21 <_ZL10trts_ecalljPv+0xbf>
            {
                //change back the page permission
                size_t enclave_start = (size_t)&__ImageBase;
    2aeb:	48 8d 05 0e d5 ff ff 	lea    -0x2af2(%rip),%rax        # 0 <enclave.so>
    2af2:	48 89 45 e8          	mov    %rax,-0x18(%rbp)
                if((status = change_protection((void *)enclave_start)) != SGX_SUCCESS)
    2af6:	48 8b 45 e8          	mov    -0x18(%rbp),%rax
    2afa:	48 89 c7             	mov    %rax,%rdi
    2afd:	e8 13 23 00 00       	callq  4e15 <change_protection>
    2b02:	89 45 d4             	mov    %eax,-0x2c(%rbp)
    2b05:	83 7d d4 00          	cmpl   $0x0,-0x2c(%rbp)
    2b09:	0f 95 c0             	setne  %al
    2b0c:	84 c0                	test   %al,%al
    2b0e:	74 11                	je     2b21 <_ZL10trts_ecalljPv+0xbf>
                {
                    sgx_spin_unlock(&g_ife_lock);
    2b10:	48 8d 3d b9 e5 00 00 	lea    0xe5b9(%rip),%rdi        # 110d0 <_ZL10g_ife_lock>
    2b17:	e8 4a 89 00 00       	callq  b466 <sgx_spin_unlock>
                    return status;
    2b1c:	8b 45 d4             	mov    -0x2c(%rbp),%eax
    2b1f:	eb 58                	jmp    2b79 <_ZL10trts_ecalljPv+0x117>
                }
            }
#endif
            //invoke global object's construction
            init_global_object();
    2b21:	e8 97 27 00 00       	callq  52bd <init_global_object>
            g_is_first_ecall = false;
    2b26:	c6 05 d3 e4 00 00 00 	movb   $0x0,0xe4d3(%rip)        # 11000 <_ZL16g_is_first_ecall>
        }
        sgx_spin_unlock(&g_ife_lock);
    2b2d:	48 8d 3d 9c e5 00 00 	lea    0xe59c(%rip),%rdi        # 110d0 <_ZL10g_ife_lock>
    2b34:	e8 2d 89 00 00       	callq  b466 <sgx_spin_unlock>
    }

    void *addr = NULL;
    2b39:	48 c7 45 d8 00 00 00 	movq   $0x0,-0x28(%rbp)
    2b40:	00 
    status = get_func_addr(ordinal, &addr);
    2b41:	48 8d 55 d8          	lea    -0x28(%rbp),%rdx
    2b45:	8b 45 cc             	mov    -0x34(%rbp),%eax
    2b48:	48 89 d6             	mov    %rdx,%rsi
    2b4b:	89 c7                	mov    %eax,%edi
    2b4d:	e8 ad fc ff ff       	callq  27ff <_ZL13get_func_addrjPPv>
    2b52:	89 45 d4             	mov    %eax,-0x2c(%rbp)
    if(status == SGX_SUCCESS)
    2b55:	83 7d d4 00          	cmpl   $0x0,-0x2c(%rbp)
    2b59:	75 1b                	jne    2b76 <_ZL10trts_ecalljPv+0x114>
    {
        ecall_func_t func = (ecall_func_t)addr;
    2b5b:	48 8b 45 d8          	mov    -0x28(%rbp),%rax
    2b5f:	48 89 45 f0          	mov    %rax,-0x10(%rbp)

        sgx_lfence();
    2b63:	0f ae e8             	lfence 

        status = func(ms);
    2b66:	48 8b 55 c0          	mov    -0x40(%rbp),%rdx
    2b6a:	48 8b 45 f0          	mov    -0x10(%rbp),%rax
    2b6e:	48 89 d7             	mov    %rdx,%rdi
    2b71:	ff d0                	callq  *%rax
    2b73:	89 45 d4             	mov    %eax,-0x2c(%rbp)
    }
    
    return status;
    2b76:	8b 45 d4             	mov    -0x2c(%rbp),%eax
}
    2b79:	48 8b 4d f8          	mov    -0x8(%rbp),%rcx
    2b7d:	64 48 33 0c 25 28 00 	xor    %fs:0x28,%rcx
    2b84:	00 00 
    2b86:	74 05                	je     2b8d <_ZL10trts_ecalljPv+0x12b>
    2b88:	e8 4d 27 00 00       	callq  52da <__stack_chk_fail>
    2b8d:	c9                   	leaveq 
    2b8e:	c3                   	retq   

0000000000002b8f <_ZL24init_static_stack_canaryPv>:

extern "C" uintptr_t __stack_chk_guard;
static void init_static_stack_canary(void *tcs)
{
    2b8f:	55                   	push   %rbp
    2b90:	48 89 e5             	mov    %rsp,%rbp
    2b93:	48 89 7d e8          	mov    %rdi,-0x18(%rbp)
    size_t *canary = TCS2CANARY(tcs);
    2b97:	48 8b 45 e8          	mov    -0x18(%rbp),%rax
    2b9b:	48 2d a8 02 01 00    	sub    $0x102a8,%rax
    2ba1:	48 89 45 f8          	mov    %rax,-0x8(%rbp)
    *canary = (size_t)__stack_chk_guard;
    2ba5:	48 8d 05 54 e2 00 00 	lea    0xe254(%rip),%rax        # 10e00 <__intel_security_cookie>
    2bac:	48 8b 10             	mov    (%rax),%rdx
    2baf:	48 8b 45 f8          	mov    -0x8(%rbp),%rax
    2bb3:	48 89 10             	mov    %rdx,(%rax)
}
    2bb6:	90                   	nop
    2bb7:	5d                   	pop    %rbp
    2bb8:	c3                   	retq   

0000000000002bb9 <do_init_thread>:

sgx_status_t do_init_thread(void *tcs, bool enclave_init)
{
    2bb9:	55                   	push   %rbp
    2bba:	48 89 e5             	mov    %rsp,%rbp
    2bbd:	48 83 ec 50          	sub    $0x50,%rsp
    2bc1:	48 89 7d b8          	mov    %rdi,-0x48(%rbp)
    2bc5:	89 f0                	mov    %esi,%eax
    2bc7:	88 45 b4             	mov    %al,-0x4c(%rbp)
    2bca:	64 48 8b 04 25 28 00 	mov    %fs:0x28,%rax
    2bd1:	00 00 
    2bd3:	48 89 45 f8          	mov    %rax,-0x8(%rbp)
    2bd7:	31 c0                	xor    %eax,%eax
    thread_data_t *thread_data = GET_PTR(thread_data_t, tcs, g_global_data.td_template.self_addr);
    2bd9:	48 8d 05 a0 a5 00 00 	lea    0xa5a0(%rip),%rax        # d180 <g_global_data>
    2be0:	48 8b 50 40          	mov    0x40(%rax),%rdx
    2be4:	48 8b 45 b8          	mov    -0x48(%rbp),%rax
    2be8:	48 01 d0             	add    %rdx,%rax
    2beb:	48 89 45 d8          	mov    %rax,-0x28(%rbp)
#ifndef SE_SIM
    size_t saved_stack_commit_addr = thread_data->stack_commit_addr;
    2bef:	48 8b 45 d8          	mov    -0x28(%rbp),%rax
    2bf3:	48 8b 80 98 00 00 00 	mov    0x98(%rax),%rax
    2bfa:	48 89 45 e0          	mov    %rax,-0x20(%rbp)
    bool thread_first_init = (saved_stack_commit_addr == 0) ? true : false;
    2bfe:	48 83 7d e0 00       	cmpq   $0x0,-0x20(%rbp)
    2c03:	0f 94 c0             	sete   %al
    2c06:	88 45 c3             	mov    %al,-0x3d(%rbp)
#endif
    size_t stack_guard = thread_data->stack_guard;
    2c09:	48 8b 45 d8          	mov    -0x28(%rbp),%rax
    2c0d:	48 8b 40 28          	mov    0x28(%rax),%rax
    2c11:	48 89 45 e8          	mov    %rax,-0x18(%rbp)
    size_t thread_flags = thread_data->flags;
    2c15:	48 8b 45 d8          	mov    -0x28(%rbp),%rax
    2c19:	48 8b 40 30          	mov    0x30(%rax),%rax
    2c1d:	48 89 45 f0          	mov    %rax,-0x10(%rbp)
    memcpy_s(thread_data, SE_PAGE_SIZE, const_cast<thread_data_t *>(&g_global_data.td_template), sizeof(thread_data_t));
    2c21:	48 8b 45 d8          	mov    -0x28(%rbp),%rax
    2c25:	b9 a0 00 00 00       	mov    $0xa0,%ecx
    2c2a:	48 8d 15 4f a5 00 00 	lea    0xa54f(%rip),%rdx        # d180 <g_global_data>
    2c31:	48 8d 52 40          	lea    0x40(%rdx),%rdx
    2c35:	be 00 10 00 00       	mov    $0x1000,%esi
    2c3a:	48 89 c7             	mov    %rax,%rdi
    2c3d:	e8 3a fa ff ff       	callq  267c <memcpy_s>
    thread_data->last_sp += (size_t)tcs;
    2c42:	48 8b 45 d8          	mov    -0x28(%rbp),%rax
    2c46:	48 8b 50 08          	mov    0x8(%rax),%rdx
    2c4a:	48 8b 45 b8          	mov    -0x48(%rbp),%rax
    2c4e:	48 01 c2             	add    %rax,%rdx
    2c51:	48 8b 45 d8          	mov    -0x28(%rbp),%rax
    2c55:	48 89 50 08          	mov    %rdx,0x8(%rax)
    thread_data->self_addr += (size_t)tcs;
    2c59:	48 8b 45 d8          	mov    -0x28(%rbp),%rax
    2c5d:	48 8b 10             	mov    (%rax),%rdx
    2c60:	48 8b 45 b8          	mov    -0x48(%rbp),%rax
    2c64:	48 01 c2             	add    %rax,%rdx
    2c67:	48 8b 45 d8          	mov    -0x28(%rbp),%rax
    2c6b:	48 89 10             	mov    %rdx,(%rax)
    thread_data->stack_base_addr += (size_t)tcs;
    2c6e:	48 8b 45 d8          	mov    -0x28(%rbp),%rax
    2c72:	48 8b 50 10          	mov    0x10(%rax),%rdx
    2c76:	48 8b 45 b8          	mov    -0x48(%rbp),%rax
    2c7a:	48 01 c2             	add    %rax,%rdx
    2c7d:	48 8b 45 d8          	mov    -0x28(%rbp),%rax
    2c81:	48 89 50 10          	mov    %rdx,0x10(%rax)
    thread_data->stack_limit_addr += (size_t)tcs;
    2c85:	48 8b 45 d8          	mov    -0x28(%rbp),%rax
    2c89:	48 8b 50 18          	mov    0x18(%rax),%rdx
    2c8d:	48 8b 45 b8          	mov    -0x48(%rbp),%rax
    2c91:	48 01 c2             	add    %rax,%rdx
    2c94:	48 8b 45 d8          	mov    -0x28(%rbp),%rax
    2c98:	48 89 50 18          	mov    %rdx,0x18(%rax)
    thread_data->stack_commit_addr = thread_data->stack_limit_addr;
    2c9c:	48 8b 45 d8          	mov    -0x28(%rbp),%rax
    2ca0:	48 8b 50 18          	mov    0x18(%rax),%rdx
    2ca4:	48 8b 45 d8          	mov    -0x28(%rbp),%rax
    2ca8:	48 89 90 98 00 00 00 	mov    %rdx,0x98(%rax)
    thread_data->first_ssa_gpr += (size_t)tcs;
    2caf:	48 8b 45 d8          	mov    -0x28(%rbp),%rax
    2cb3:	48 8b 50 20          	mov    0x20(%rax),%rdx
    2cb7:	48 8b 45 b8          	mov    -0x48(%rbp),%rax
    2cbb:	48 01 c2             	add    %rax,%rdx
    2cbe:	48 8b 45 d8          	mov    -0x28(%rbp),%rax
    2cc2:	48 89 50 20          	mov    %rdx,0x20(%rax)
    thread_data->tls_array += (size_t)tcs;
    2cc6:	48 8b 45 d8          	mov    -0x28(%rbp),%rax
    2cca:	48 8b 50 58          	mov    0x58(%rax),%rdx
    2cce:	48 8b 45 b8          	mov    -0x48(%rbp),%rax
    2cd2:	48 01 c2             	add    %rax,%rdx
    2cd5:	48 8b 45 d8          	mov    -0x28(%rbp),%rax
    2cd9:	48 89 50 58          	mov    %rdx,0x58(%rax)
    thread_data->tls_addr += (size_t)tcs;
    2cdd:	48 8b 45 d8          	mov    -0x28(%rbp),%rax
    2ce1:	48 8b 50 50          	mov    0x50(%rax),%rdx
    2ce5:	48 8b 45 b8          	mov    -0x48(%rbp),%rax
    2ce9:	48 01 c2             	add    %rax,%rdx
    2cec:	48 8b 45 d8          	mov    -0x28(%rbp),%rax
    2cf0:	48 89 50 50          	mov    %rdx,0x50(%rax)
    thread_data->last_sp -= (size_t)STATIC_STACK_SIZE;
    2cf4:	48 8b 45 d8          	mov    -0x28(%rbp),%rax
    2cf8:	48 8b 40 08          	mov    0x8(%rax),%rax
    2cfc:	48 8d 90 50 fd ff ff 	lea    -0x2b0(%rax),%rdx
    2d03:	48 8b 45 d8          	mov    -0x28(%rbp),%rax
    2d07:	48 89 50 08          	mov    %rdx,0x8(%rax)
    thread_data->stack_base_addr -= (size_t)STATIC_STACK_SIZE;
    2d0b:	48 8b 45 d8          	mov    -0x28(%rbp),%rax
    2d0f:	48 8b 40 10          	mov    0x10(%rax),%rax
    2d13:	48 8d 90 50 fd ff ff 	lea    -0x2b0(%rax),%rdx
    2d1a:	48 8b 45 d8          	mov    -0x28(%rbp),%rax
    2d1e:	48 89 50 10          	mov    %rdx,0x10(%rax)
    thread_data->stack_guard = stack_guard;
    2d22:	48 8b 45 d8          	mov    -0x28(%rbp),%rax
    2d26:	48 8b 55 e8          	mov    -0x18(%rbp),%rdx
    2d2a:	48 89 50 28          	mov    %rdx,0x28(%rax)
    thread_data->flags = thread_flags;
    2d2e:	48 8b 45 d8          	mov    -0x28(%rbp),%rax
    2d32:	48 8b 55 f0          	mov    -0x10(%rbp),%rdx
    2d36:	48 89 50 30          	mov    %rdx,0x30(%rax)
    init_static_stack_canary(tcs);
    2d3a:	48 8b 45 b8          	mov    -0x48(%rbp),%rax
    2d3e:	48 89 c7             	mov    %rax,%rdi
    2d41:	e8 49 fe ff ff       	callq  2b8f <_ZL24init_static_stack_canaryPv>

    if (EDMM_supported && enclave_init)
    2d46:	48 8d 05 a3 e0 00 00 	lea    0xe0a3(%rip),%rax        # 10df0 <EDMM_supported>
    2d4d:	8b 00                	mov    (%rax),%eax
    2d4f:	85 c0                	test   %eax,%eax
    2d51:	74 12                	je     2d65 <do_init_thread+0x1ac>
    2d53:	80 7d b4 00          	cmpb   $0x0,-0x4c(%rbp)
    2d57:	74 0c                	je     2d65 <do_init_thread+0x1ac>
    {
        thread_data->flags = SGX_UTILITY_THREAD;
    2d59:	48 8b 45 d8          	mov    -0x28(%rbp),%rax
    2d5d:	48 c7 40 30 01 00 00 	movq   $0x1,0x30(%rax)
    2d64:	00 
    }
#ifndef SE_SIM
    if (thread_first_init)
    2d65:	80 7d c3 00          	cmpb   $0x0,-0x3d(%rbp)
    2d69:	74 5d                	je     2dc8 <do_init_thread+0x20f>
    {
        if (EDMM_supported && (enclave_init || is_dynamic_thread(tcs)))
    2d6b:	48 8d 05 7e e0 00 00 	lea    0xe07e(%rip),%rax        # 10df0 <EDMM_supported>
    2d72:	8b 00                	mov    (%rax),%eax
    2d74:	85 c0                	test   %eax,%eax
    2d76:	74 1d                	je     2d95 <do_init_thread+0x1dc>
    2d78:	80 7d b4 00          	cmpb   $0x0,-0x4c(%rbp)
    2d7c:	75 10                	jne    2d8e <do_init_thread+0x1d5>
    2d7e:	48 8b 45 b8          	mov    -0x48(%rbp),%rax
    2d82:	48 89 c7             	mov    %rax,%rdi
    2d85:	e8 30 f2 ff ff       	callq  1fba <is_dynamic_thread>
    2d8a:	85 c0                	test   %eax,%eax
    2d8c:	74 07                	je     2d95 <do_init_thread+0x1dc>
    2d8e:	b8 01 00 00 00       	mov    $0x1,%eax
    2d93:	eb 05                	jmp    2d9a <do_init_thread+0x1e1>
    2d95:	b8 00 00 00 00       	mov    $0x0,%eax
    2d9a:	84 c0                	test   %al,%al
    2d9c:	74 39                	je     2dd7 <do_init_thread+0x21e>
        {
            uint32_t page_count = get_dynamic_stack_max_page();
    2d9e:	e8 d7 f2 ff ff       	callq  207a <get_dynamic_stack_max_page>
    2da3:	89 45 c4             	mov    %eax,-0x3c(%rbp)
            thread_data->stack_commit_addr += ((sys_word_t)page_count << SE_PAGE_SHIFT);
    2da6:	48 8b 45 d8          	mov    -0x28(%rbp),%rax
    2daa:	48 8b 80 98 00 00 00 	mov    0x98(%rax),%rax
    2db1:	8b 55 c4             	mov    -0x3c(%rbp),%edx
    2db4:	48 c1 e2 0c          	shl    $0xc,%rdx
    2db8:	48 01 c2             	add    %rax,%rdx
    2dbb:	48 8b 45 d8          	mov    -0x28(%rbp),%rax
    2dbf:	48 89 90 98 00 00 00 	mov    %rdx,0x98(%rax)
    2dc6:	eb 0f                	jmp    2dd7 <do_init_thread+0x21e>
        }
    }
    else
    {
        thread_data->stack_commit_addr = saved_stack_commit_addr;
    2dc8:	48 8b 45 d8          	mov    -0x28(%rbp),%rax
    2dcc:	48 8b 55 e0          	mov    -0x20(%rbp),%rdx
    2dd0:	48 89 90 98 00 00 00 	mov    %rdx,0x98(%rax)
    }
#endif

    uintptr_t tls_addr = 0;
    2dd7:	48 c7 45 c8 00 00 00 	movq   $0x0,-0x38(%rbp)
    2dde:	00 
    size_t tdata_size = 0;
    2ddf:	48 c7 45 d0 00 00 00 	movq   $0x0,-0x30(%rbp)
    2de6:	00 

    if(0 != GET_TLS_INFO(&__ImageBase, &tls_addr, &tdata_size))
    2de7:	48 8d 55 d0          	lea    -0x30(%rbp),%rdx
    2deb:	48 8d 45 c8          	lea    -0x38(%rbp),%rax
    2def:	48 89 c6             	mov    %rax,%rsi
    2df2:	48 8d 05 07 d2 ff ff 	lea    -0x2df9(%rip),%rax        # 0 <enclave.so>
    2df9:	48 89 c7             	mov    %rax,%rdi
    2dfc:	e8 80 1b 00 00       	callq  4981 <elf_tls_info>
    2e01:	85 c0                	test   %eax,%eax
    2e03:	0f 95 c0             	setne  %al
    2e06:	84 c0                	test   %al,%al
    2e08:	74 0a                	je     2e14 <do_init_thread+0x25b>
    {
        return SGX_ERROR_UNEXPECTED;
    2e0a:	b8 01 00 00 00       	mov    $0x1,%eax
    2e0f:	e9 83 00 00 00       	jmpq   2e97 <do_init_thread+0x2de>
    }
    if(tls_addr)
    2e14:	48 8b 45 c8          	mov    -0x38(%rbp),%rax
    2e18:	48 85 c0             	test   %rax,%rax
    2e1b:	74 75                	je     2e92 <do_init_thread+0x2d9>
    {
        memset((void *)TRIM_TO_PAGE(thread_data->tls_addr), 0, ROUND_TO_PAGE(thread_data->self_addr - thread_data->tls_addr));
    2e1d:	48 8b 45 d8          	mov    -0x28(%rbp),%rax
    2e21:	48 8b 10             	mov    (%rax),%rdx
    2e24:	48 8b 45 d8          	mov    -0x28(%rbp),%rax
    2e28:	48 8b 40 50          	mov    0x50(%rax),%rax
    2e2c:	48 29 c2             	sub    %rax,%rdx
    2e2f:	48 89 d0             	mov    %rdx,%rax
    2e32:	48 05 ff 0f 00 00    	add    $0xfff,%rax
    2e38:	48 25 00 f0 ff ff    	and    $0xfffffffffffff000,%rax
    2e3e:	48 89 c2             	mov    %rax,%rdx
    2e41:	48 8b 45 d8          	mov    -0x28(%rbp),%rax
    2e45:	48 8b 40 50          	mov    0x50(%rax),%rax
    2e49:	48 25 00 f0 ff ff    	and    $0xfffffffffffff000,%rax
    2e4f:	be 00 00 00 00       	mov    $0x0,%esi
    2e54:	48 89 c7             	mov    %rax,%rdi
    2e57:	e8 44 81 00 00       	callq  afa0 <memset>
        memcpy_s((void *)(thread_data->tls_addr), thread_data->self_addr - thread_data->tls_addr, (void *)tls_addr, tdata_size);
    2e5c:	48 8b 45 d0          	mov    -0x30(%rbp),%rax
    2e60:	48 8b 55 c8          	mov    -0x38(%rbp),%rdx
    2e64:	49 89 d0             	mov    %rdx,%r8
    2e67:	48 8b 55 d8          	mov    -0x28(%rbp),%rdx
    2e6b:	48 8b 0a             	mov    (%rdx),%rcx
    2e6e:	48 8b 55 d8          	mov    -0x28(%rbp),%rdx
    2e72:	48 8b 52 50          	mov    0x50(%rdx),%rdx
    2e76:	48 29 d1             	sub    %rdx,%rcx
    2e79:	48 89 ce             	mov    %rcx,%rsi
    2e7c:	48 8b 55 d8          	mov    -0x28(%rbp),%rdx
    2e80:	48 8b 52 50          	mov    0x50(%rdx),%rdx
    2e84:	48 89 d7             	mov    %rdx,%rdi
    2e87:	48 89 c1             	mov    %rax,%rcx
    2e8a:	4c 89 c2             	mov    %r8,%rdx
    2e8d:	e8 ea f7 ff ff       	callq  267c <memcpy_s>
    }

    return SGX_SUCCESS;
    2e92:	b8 00 00 00 00       	mov    $0x0,%eax
}
    2e97:	48 8b 4d f8          	mov    -0x8(%rbp),%rcx
    2e9b:	64 48 33 0c 25 28 00 	xor    %fs:0x28,%rcx
    2ea2:	00 00 
    2ea4:	74 05                	je     2eab <do_init_thread+0x2f2>
    2ea6:	e8 2f 24 00 00       	callq  52da <__stack_chk_fail>
    2eab:	c9                   	leaveq 
    2eac:	c3                   	retq   

0000000000002ead <do_ecall>:

sgx_status_t do_ecall(int index, void *ms, void *tcs)
{
    2ead:	55                   	push   %rbp
    2eae:	48 89 e5             	mov    %rsp,%rbp
    2eb1:	48 83 c4 80          	add    $0xffffffffffffff80,%rsp
    2eb5:	89 7d 9c             	mov    %edi,-0x64(%rbp)
    2eb8:	48 89 75 90          	mov    %rsi,-0x70(%rbp)
    2ebc:	48 89 55 88          	mov    %rdx,-0x78(%rbp)
    2ec0:	64 48 8b 04 25 28 00 	mov    %fs:0x28,%rax
    2ec7:	00 00 
    2ec9:	48 89 45 f8          	mov    %rax,-0x8(%rbp)
    2ecd:	31 c0                	xor    %eax,%eax
    sgx_status_t status = SGX_ERROR_UNEXPECTED;
    2ecf:	c7 45 a4 01 00 00 00 	movl   $0x1,-0x5c(%rbp)
    if(ENCLAVE_INIT_DONE != get_enclave_state())
    2ed6:	e8 91 97 00 00       	callq  c66c <get_enclave_state>
    2edb:	83 f8 02             	cmp    $0x2,%eax
    2ede:	0f 95 c0             	setne  %al
    2ee1:	84 c0                	test   %al,%al
    2ee3:	74 08                	je     2eed <do_ecall+0x40>
    {
        return status;
    2ee5:	8b 45 a4             	mov    -0x5c(%rbp),%eax
    2ee8:	e9 8c 01 00 00       	jmpq   3079 <do_ecall+0x1cc>
    }
    thread_data_t *thread_data = get_thread_data();
    2eed:	e8 ad 97 00 00       	callq  c69f <get_thread_data>
    2ef2:	48 89 45 a8          	mov    %rax,-0x58(%rbp)
    if( (NULL == thread_data) || 
    2ef6:	48 83 7d a8 00       	cmpq   $0x0,-0x58(%rbp)
    2efb:	74 37                	je     2f34 <do_ecall+0x87>
            ((thread_data->stack_base_addr == thread_data->last_sp) && 
    2efd:	48 8b 45 a8          	mov    -0x58(%rbp),%rax
    2f01:	48 8b 50 10          	mov    0x10(%rax),%rdx
    2f05:	48 8b 45 a8          	mov    -0x58(%rbp),%rax
    2f09:	48 8b 40 08          	mov    0x8(%rax),%rax
    if( (NULL == thread_data) || 
    2f0d:	48 39 c2             	cmp    %rax,%rdx
    2f10:	75 29                	jne    2f3b <do_ecall+0x8e>
                    ( (0 != g_global_data.thread_policy) ||
    2f12:	48 8d 05 67 a2 00 00 	lea    0xa267(%rip),%rax        # d180 <g_global_data>
    2f19:	48 8b 40 30          	mov    0x30(%rax),%rax
            ((thread_data->stack_base_addr == thread_data->last_sp) && 
    2f1d:	48 85 c0             	test   %rax,%rax
    2f20:	75 12                	jne    2f34 <do_ecall+0x87>
                       (SGX_PTHREAD_EXIT == _pthread_tls_get_state()) ||    /*Force do initial thread if previous ECALL is exited by pthread_exit()*/
    2f22:	e8 c0 f7 ff ff       	callq  26e7 <_Z22_pthread_tls_get_statev>
                    ( (0 != g_global_data.thread_policy) ||
    2f27:	83 f8 09             	cmp    $0x9,%eax
    2f2a:	74 08                	je     2f34 <do_ecall+0x87>
                        (index == ECMD_ECALL_PTHREAD))))  /*Force do initial thread if this thread is created by SGX pthread_create() */
    2f2c:	8b 45 9c             	mov    -0x64(%rbp),%eax
                       (SGX_PTHREAD_EXIT == _pthread_tls_get_state()) ||    /*Force do initial thread if previous ECALL is exited by pthread_exit()*/
    2f2f:	83 f8 fa             	cmp    $0xfffffffa,%eax
    2f32:	75 07                	jne    2f3b <do_ecall+0x8e>
    if( (NULL == thread_data) || 
    2f34:	b8 01 00 00 00       	mov    $0x1,%eax
    2f39:	eb 05                	jmp    2f40 <do_ecall+0x93>
    2f3b:	b8 00 00 00 00       	mov    $0x0,%eax
    2f40:	84 c0                	test   %al,%al
    2f42:	74 22                	je     2f66 <do_ecall+0xb9>
    {
        status = do_init_thread(tcs, false);
    2f44:	48 8b 45 88          	mov    -0x78(%rbp),%rax
    2f48:	be 00 00 00 00       	mov    $0x0,%esi
    2f4d:	48 89 c7             	mov    %rax,%rdi
    2f50:	e8 64 fc ff ff       	callq  2bb9 <do_init_thread>
    2f55:	89 45 a4             	mov    %eax,-0x5c(%rbp)
        if(0 != status)
    2f58:	83 7d a4 00          	cmpl   $0x0,-0x5c(%rbp)
    2f5c:	74 08                	je     2f66 <do_ecall+0xb9>
        {
            return status;
    2f5e:	8b 45 a4             	mov    -0x5c(%rbp),%eax
    2f61:	e9 13 01 00 00       	jmpq   3079 <do_ecall+0x1cc>
        }
    }
    thread_data = get_thread_data();
    2f66:	e8 34 97 00 00       	callq  c69f <get_thread_data>
    2f6b:	48 89 45 a8          	mov    %rax,-0x58(%rbp)
    if(thread_data->stack_base_addr == thread_data->last_sp)
    2f6f:	48 8b 45 a8          	mov    -0x58(%rbp),%rax
    2f73:	48 8b 50 10          	mov    0x10(%rax),%rdx
    2f77:	48 8b 45 a8          	mov    -0x58(%rbp),%rax
    2f7b:	48 8b 40 08          	mov    0x8(%rax),%rax
    2f7f:	48 39 c2             	cmp    %rax,%rdx
    2f82:	0f 85 da 00 00 00    	jne    3062 <do_ecall+0x1b5>
    {
        //root ecall
        if(_pthread_enabled())
    2f88:	e8 45 f7 ff ff       	callq  26d2 <_Z16_pthread_enabledv>
    2f8d:	84 c0                	test   %al,%al
    2f8f:	0f 84 b1 00 00 00    	je     3046 <do_ecall+0x199>
        {
            jmp_buf     buf = {0};
    2f95:	48 c7 45 b0 00 00 00 	movq   $0x0,-0x50(%rbp)
    2f9c:	00 
    2f9d:	48 c7 45 b8 00 00 00 	movq   $0x0,-0x48(%rbp)
    2fa4:	00 
    2fa5:	48 c7 45 c0 00 00 00 	movq   $0x0,-0x40(%rbp)
    2fac:	00 
    2fad:	48 c7 45 c8 00 00 00 	movq   $0x0,-0x38(%rbp)
    2fb4:	00 
    2fb5:	48 c7 45 d0 00 00 00 	movq   $0x0,-0x30(%rbp)
    2fbc:	00 
    2fbd:	48 c7 45 d8 00 00 00 	movq   $0x0,-0x28(%rbp)
    2fc4:	00 
    2fc5:	48 c7 45 e0 00 00 00 	movq   $0x0,-0x20(%rbp)
    2fcc:	00 
    2fcd:	48 c7 45 e8 00 00 00 	movq   $0x0,-0x18(%rbp)
    2fd4:	00 
            if(0 == setjmp(buf))
    2fd5:	48 8d 45 b0          	lea    -0x50(%rbp),%rax
    2fd9:	48 89 c7             	mov    %rax,%rdi
    2fdc:	e8 9e 84 00 00       	callq  b47f <_setjmp>
    2fe1:	85 c0                	test   %eax,%eax
    2fe3:	0f 94 c0             	sete   %al
    2fe6:	84 c0                	test   %al,%al
    2fe8:	74 28                	je     3012 <do_ecall+0x165>
            {
                _pthread_tls_store_context((void*)buf);
    2fea:	48 8d 45 b0          	lea    -0x50(%rbp),%rax
    2fee:	48 89 c7             	mov    %rax,%rdi
    2ff1:	e8 fc f6 ff ff       	callq  26f2 <_Z26_pthread_tls_store_contextPv>
                status = random_stack_advance<0x800>(trts_ecall, index, ms);
    2ff6:	48 8d 55 90          	lea    -0x70(%rbp),%rdx
    2ffa:	48 8d 45 9c          	lea    -0x64(%rbp),%rax
    2ffe:	48 89 c6             	mov    %rax,%rsi
    3001:	48 8d 3d 5a fa ff ff 	lea    -0x5a6(%rip),%rdi        # 2a62 <_ZL10trts_ecalljPv>
    3008:	e8 78 04 00 00       	callq  3485 <_Z20random_stack_advanceILj2048E9_status_tJjPvEJRiRS1_EET0_PFS4_DpT1_EDpOT2_>
    300d:	89 45 a4             	mov    %eax,-0x5c(%rbp)
    3010:	eb 21                	jmp    3033 <do_ecall+0x186>
            }
            else
            {
                //Enter here if pthread_exit() is called inside ECALL functions.
                _pthread_tls_store_state(SGX_PTHREAD_EXIT);
    3012:	bf 09 00 00 00       	mov    $0x9,%edi
    3017:	e8 c1 f6 ff ff       	callq  26dd <_Z24_pthread_tls_store_state9_status_t>
                //Important: manually reset the last_sp
                thread_data->last_sp = thread_data->stack_base_addr;
    301c:	48 8b 45 a8          	mov    -0x58(%rbp),%rax
    3020:	48 8b 50 10          	mov    0x10(%rax),%rdx
    3024:	48 8b 45 a8          	mov    -0x58(%rbp),%rax
    3028:	48 89 50 08          	mov    %rdx,0x8(%rax)
                status = SGX_PTHREAD_EXIT;
    302c:	c7 45 a4 09 00 00 00 	movl   $0x9,-0x5c(%rbp)
            }
            //-- execute some resource recycle function here, such as tls resource recycle
            _pthread_tls_destructors();
    3033:	e8 d0 f6 ff ff       	callq  2708 <_Z24_pthread_tls_destructorsv>
            _pthread_wakeup_join(ms); 
    3038:	48 8b 45 90          	mov    -0x70(%rbp),%rax
    303c:	48 89 c7             	mov    %rax,%rdi
    303f:	e8 b9 f6 ff ff       	callq  26fd <_Z20_pthread_wakeup_joinPv>
    3044:	eb 30                	jmp    3076 <do_ecall+0x1c9>
        }
        else 
        {
            //sgx pthread lib isn't linked
            status = random_stack_advance<0x800>(trts_ecall, index, ms);
    3046:	48 8d 55 90          	lea    -0x70(%rbp),%rdx
    304a:	48 8d 45 9c          	lea    -0x64(%rbp),%rax
    304e:	48 89 c6             	mov    %rax,%rsi
    3051:	48 8d 3d 0a fa ff ff 	lea    -0x5f6(%rip),%rdi        # 2a62 <_ZL10trts_ecalljPv>
    3058:	e8 28 04 00 00       	callq  3485 <_Z20random_stack_advanceILj2048E9_status_tJjPvEJRiRS1_EET0_PFS4_DpT1_EDpOT2_>
    305d:	89 45 a4             	mov    %eax,-0x5c(%rbp)
    3060:	eb 14                	jmp    3076 <do_ecall+0x1c9>
        }
    }
    else
    {
        status = trts_ecall(index, ms);
    3062:	48 8b 45 90          	mov    -0x70(%rbp),%rax
    3066:	8b 55 9c             	mov    -0x64(%rbp),%edx
    3069:	48 89 c6             	mov    %rax,%rsi
    306c:	89 d7                	mov    %edx,%edi
    306e:	e8 ef f9 ff ff       	callq  2a62 <_ZL10trts_ecalljPv>
    3073:	89 45 a4             	mov    %eax,-0x5c(%rbp)
    }
    return status;
    3076:	8b 45 a4             	mov    -0x5c(%rbp),%eax
}
    3079:	48 8b 4d f8          	mov    -0x8(%rbp),%rcx
    307d:	64 48 33 0c 25 28 00 	xor    %fs:0x28,%rcx
    3084:	00 00 
    3086:	74 05                	je     308d <do_ecall+0x1e0>
    3088:	e8 4d 22 00 00       	callq  52da <__stack_chk_fail>
    308d:	c9                   	leaveq 
    308e:	c3                   	retq   

000000000000308f <do_ecall_add_thread>:

sgx_status_t do_ecall_add_thread(void *ms)
{
    308f:	55                   	push   %rbp
    3090:	48 89 e5             	mov    %rsp,%rbp
    3093:	48 83 ec 30          	sub    $0x30,%rsp
    3097:	48 89 7d d8          	mov    %rdi,-0x28(%rbp)
    sgx_status_t status = SGX_ERROR_UNEXPECTED;
    309b:	c7 45 e4 01 00 00 00 	movl   $0x1,-0x1c(%rbp)

    if(!is_utility_thread())
    30a2:	e8 20 0c 00 00       	callq  3cc7 <is_utility_thread>
    30a7:	83 f0 01             	xor    $0x1,%eax
    30aa:	84 c0                	test   %al,%al
    30ac:	74 08                	je     30b6 <do_ecall_add_thread+0x27>
        return status;
    30ae:	8b 45 e4             	mov    -0x1c(%rbp),%eax
    30b1:	e9 9b 00 00 00       	jmpq   3151 <do_ecall_add_thread+0xc2>

    struct ms_tcs *tcs = (struct ms_tcs*)ms;
    30b6:	48 8b 45 d8          	mov    -0x28(%rbp),%rax
    30ba:	48 89 45 f0          	mov    %rax,-0x10(%rbp)
    if (tcs == NULL)
    30be:	48 83 7d f0 00       	cmpq   $0x0,-0x10(%rbp)
    30c3:	75 08                	jne    30cd <do_ecall_add_thread+0x3e>
    {
        return status;
    30c5:	8b 45 e4             	mov    -0x1c(%rbp),%eax
    30c8:	e9 84 00 00 00       	jmpq   3151 <do_ecall_add_thread+0xc2>
    }

    if (!sgx_is_outside_enclave(tcs, sizeof(struct ms_tcs)))
    30cd:	48 8b 45 f0          	mov    -0x10(%rbp),%rax
    30d1:	be 08 00 00 00       	mov    $0x8,%esi
    30d6:	48 89 c7             	mov    %rax,%rdi
    30d9:	e8 b7 e2 ff ff       	callq  1395 <sgx_is_outside_enclave>
    30de:	85 c0                	test   %eax,%eax
    30e0:	0f 94 c0             	sete   %al
    30e3:	84 c0                	test   %al,%al
    30e5:	74 05                	je     30ec <do_ecall_add_thread+0x5d>
    {
        return status;
    30e7:	8b 45 e4             	mov    -0x1c(%rbp),%eax
    30ea:	eb 65                	jmp    3151 <do_ecall_add_thread+0xc2>
    }

    const struct ms_tcs mtcs = *tcs;
    30ec:	48 8b 45 f0          	mov    -0x10(%rbp),%rax
    30f0:	48 8b 00             	mov    (%rax),%rax
    30f3:	48 89 45 e8          	mov    %rax,-0x18(%rbp)
    void* ptcs = mtcs.ptcs;
    30f7:	48 8b 45 e8          	mov    -0x18(%rbp),%rax
    30fb:	48 89 45 f8          	mov    %rax,-0x8(%rbp)
    if (ptcs == NULL)
    30ff:	48 83 7d f8 00       	cmpq   $0x0,-0x8(%rbp)
    3104:	75 05                	jne    310b <do_ecall_add_thread+0x7c>
    {
        return status;
    3106:	8b 45 e4             	mov    -0x1c(%rbp),%eax
    3109:	eb 46                	jmp    3151 <do_ecall_add_thread+0xc2>
    }

    sgx_lfence();
    310b:	0f ae e8             	lfence 

    status = do_save_tcs(ptcs);
    310e:	48 8b 45 f8          	mov    -0x8(%rbp),%rax
    3112:	48 89 c7             	mov    %rax,%rdi
    3115:	e8 71 f7 ff ff       	callq  288b <_Z11do_save_tcsPv>
    311a:	89 45 e4             	mov    %eax,-0x1c(%rbp)
    if(SGX_SUCCESS != status)
    311d:	83 7d e4 00          	cmpl   $0x0,-0x1c(%rbp)
    3121:	74 05                	je     3128 <do_ecall_add_thread+0x99>
    {
        return status;
    3123:	8b 45 e4             	mov    -0x1c(%rbp),%eax
    3126:	eb 29                	jmp    3151 <do_ecall_add_thread+0xc2>
    }

    status = do_add_thread(ptcs);
    3128:	48 8b 45 f8          	mov    -0x8(%rbp),%rax
    312c:	48 89 c7             	mov    %rax,%rdi
    312f:	e8 07 f3 ff ff       	callq  243b <do_add_thread>
    3134:	89 45 e4             	mov    %eax,-0x1c(%rbp)
    if (SGX_SUCCESS != status)
    3137:	83 7d e4 00          	cmpl   $0x0,-0x1c(%rbp)
    313b:	74 11                	je     314e <do_ecall_add_thread+0xbf>
    {
    	do_del_tcs(ptcs);
    313d:	48 8b 45 f8          	mov    -0x8(%rbp),%rax
    3141:	48 89 c7             	mov    %rax,%rdi
    3144:	e8 39 f8 ff ff       	callq  2982 <_ZL10do_del_tcsPv>
        return status;
    3149:	8b 45 e4             	mov    -0x1c(%rbp),%eax
    314c:	eb 03                	jmp    3151 <do_ecall_add_thread+0xc2>
    }

    return status;
    314e:	8b 45 e4             	mov    -0x1c(%rbp),%eax
}
    3151:	c9                   	leaveq 
    3152:	c3                   	retq   

0000000000003153 <do_uninit_enclave>:
// Return Value:
//     zero - success
//     non-zero - fail
//
sgx_status_t do_uninit_enclave(void *tcs)
{
    3153:	55                   	push   %rbp
    3154:	48 89 e5             	mov    %rsp,%rbp
    3157:	48 83 ec 40          	sub    $0x40,%rsp
    315b:	48 89 7d c8          	mov    %rdi,-0x38(%rbp)
    // This function should only be called when
    //  1. EDMM is enabled
    //  2. on HW mode
    // urts would not call this ECALL either on simulation mode
    // or on non-EDMM supported platform.
    if (!EDMM_supported)
    315f:	48 8d 05 8a dc 00 00 	lea    0xdc8a(%rip),%rax        # 10df0 <EDMM_supported>
    3166:	8b 00                	mov    (%rax),%eax
    3168:	85 c0                	test   %eax,%eax
    316a:	75 14                	jne    3180 <do_uninit_enclave+0x2d>
    {
        set_enclave_state(ENCLAVE_CRASHED);
    316c:	bf 03 00 00 00       	mov    $0x3,%edi
    3171:	e8 03 95 00 00       	callq  c679 <set_enclave_state>
        return SGX_ERROR_UNEXPECTED;
    3176:	b8 01 00 00 00       	mov    $0x1,%eax
    317b:	e9 4c 01 00 00       	jmpq   32cc <do_uninit_enclave+0x179>
    }

    if(!is_utility_thread() && is_dynamic_thread_exist())
    3180:	e8 42 0b 00 00       	callq  3cc7 <is_utility_thread>
    3185:	83 f0 01             	xor    $0x1,%eax
    3188:	84 c0                	test   %al,%al
    318a:	74 10                	je     319c <do_uninit_enclave+0x49>
    318c:	e8 aa ee ff ff       	callq  203b <is_dynamic_thread_exist>
    3191:	85 c0                	test   %eax,%eax
    3193:	74 07                	je     319c <do_uninit_enclave+0x49>
    3195:	b8 01 00 00 00       	mov    $0x1,%eax
    319a:	eb 05                	jmp    31a1 <do_uninit_enclave+0x4e>
    319c:	b8 00 00 00 00       	mov    $0x0,%eax
    31a1:	84 c0                	test   %al,%al
    31a3:	74 14                	je     31b9 <do_uninit_enclave+0x66>
    {
        set_enclave_state(ENCLAVE_CRASHED);
    31a5:	bf 03 00 00 00       	mov    $0x3,%edi
    31aa:	e8 ca 94 00 00       	callq  c679 <set_enclave_state>
        return SGX_ERROR_UNEXPECTED;
    31af:	b8 01 00 00 00       	mov    $0x1,%eax
    31b4:	e9 13 01 00 00       	jmpq   32cc <do_uninit_enclave+0x179>
    }

    // Set uninit_flag to indicate the do_uninit_enclave is called
    __sync_or_and_fetch(&g_uninit_flag, 1);
    31b9:	f0 83 0d 13 df 00 00 	lock orl $0x1,0xdf13(%rip)        # 110d4 <g_uninit_flag>
    31c0:	01 

    tcs_node_t *tcs_node = g_tcs_node;
    31c1:	48 8b 05 f8 de 00 00 	mov    0xdef8(%rip),%rax        # 110c0 <_ZL10g_tcs_node>
    31c8:	48 89 45 d8          	mov    %rax,-0x28(%rbp)
    g_tcs_node = NULL;
    31cc:	48 c7 05 e9 de 00 00 	movq   $0x0,0xdee9(%rip)        # 110c0 <_ZL10g_tcs_node>
    31d3:	00 00 00 00 
    while (tcs_node != NULL)
    31d7:	48 83 7d d8 00       	cmpq   $0x0,-0x28(%rbp)
    31dc:	0f 84 b0 00 00 00    	je     3292 <do_uninit_enclave+0x13f>
    {
        if (DEC_TCS_POINTER(tcs_node->tcs) == tcs)
    31e2:	48 8b 45 d8          	mov    -0x28(%rbp),%rax
    31e6:	48 8b 10             	mov    (%rax),%rdx
    31e9:	48 8b 05 d8 de 00 00 	mov    0xded8(%rip),%rax        # 110c8 <_ZL12g_tcs_cookie>
    31f0:	48 31 d0             	xor    %rdx,%rax
    31f3:	48 39 45 c8          	cmp    %rax,-0x38(%rbp)
    31f7:	75 22                	jne    321b <do_uninit_enclave+0xc8>
        {
            tcs_node_t *tmp = tcs_node;
    31f9:	48 8b 45 d8          	mov    -0x28(%rbp),%rax
    31fd:	48 89 45 f8          	mov    %rax,-0x8(%rbp)
            tcs_node = tcs_node->next;
    3201:	48 8b 45 d8          	mov    -0x28(%rbp),%rax
    3205:	48 8b 40 08          	mov    0x8(%rax),%rax
    3209:	48 89 45 d8          	mov    %rax,-0x28(%rbp)
            free(tmp);
    320d:	48 8b 45 f8          	mov    -0x8(%rbp),%rax
    3211:	48 89 c7             	mov    %rax,%rdi
    3214:	e8 86 66 00 00       	callq  989f <dlfree>
            continue;
    3219:	eb 72                	jmp    328d <do_uninit_enclave+0x13a>
        }

        size_t start = (size_t)DEC_TCS_POINTER(tcs_node->tcs);
    321b:	48 8b 45 d8          	mov    -0x28(%rbp),%rax
    321f:	48 8b 10             	mov    (%rax),%rdx
    3222:	48 8b 05 9f de 00 00 	mov    0xde9f(%rip),%rax        # 110c8 <_ZL12g_tcs_cookie>
    3229:	48 31 d0             	xor    %rdx,%rax
    322c:	48 89 45 e0          	mov    %rax,-0x20(%rbp)
        size_t end = start + (1 << SE_PAGE_SHIFT);
    3230:	48 8b 45 e0          	mov    -0x20(%rbp),%rax
    3234:	48 05 00 10 00 00    	add    $0x1000,%rax
    323a:	48 89 45 e8          	mov    %rax,-0x18(%rbp)
        int rc = sgx_accept_forward(SI_FLAG_TRIM | SI_FLAG_MODIFIED, start, end);
    323e:	48 8b 55 e8          	mov    -0x18(%rbp),%rdx
    3242:	48 8b 45 e0          	mov    -0x20(%rbp),%rax
    3246:	48 89 c6             	mov    %rax,%rsi
    3249:	bf 10 04 00 00       	mov    $0x410,%edi
    324e:	e8 54 ee ff ff       	callq  20a7 <sgx_accept_forward>
    3253:	89 45 d4             	mov    %eax,-0x2c(%rbp)
        if(rc != 0)
    3256:	83 7d d4 00          	cmpl   $0x0,-0x2c(%rbp)
    325a:	74 11                	je     326d <do_uninit_enclave+0x11a>
        {
            set_enclave_state(ENCLAVE_CRASHED);
    325c:	bf 03 00 00 00       	mov    $0x3,%edi
    3261:	e8 13 94 00 00       	callq  c679 <set_enclave_state>
            return SGX_ERROR_UNEXPECTED;
    3266:	b8 01 00 00 00       	mov    $0x1,%eax
    326b:	eb 5f                	jmp    32cc <do_uninit_enclave+0x179>
        }

        tcs_node_t *tmp = tcs_node;
    326d:	48 8b 45 d8          	mov    -0x28(%rbp),%rax
    3271:	48 89 45 f0          	mov    %rax,-0x10(%rbp)
        tcs_node = tcs_node->next;
    3275:	48 8b 45 d8          	mov    -0x28(%rbp),%rax
    3279:	48 8b 40 08          	mov    0x8(%rax),%rax
    327d:	48 89 45 d8          	mov    %rax,-0x28(%rbp)
        free(tmp);
    3281:	48 8b 45 f0          	mov    -0x10(%rbp),%rax
    3285:	48 89 c7             	mov    %rax,%rdi
    3288:	e8 12 66 00 00       	callq  989f <dlfree>
    while (tcs_node != NULL)
    328d:	e9 45 ff ff ff       	jmpq   31d7 <do_uninit_enclave+0x84>
    }

    sgx_spin_lock(&g_ife_lock);
    3292:	48 8d 3d 37 de 00 00 	lea    0xde37(%rip),%rdi        # 110d0 <_ZL10g_ife_lock>
    3299:	e8 61 81 00 00       	callq  b3ff <sgx_spin_lock>
    if (!g_is_first_ecall)
    329e:	0f b6 05 5b dd 00 00 	movzbl 0xdd5b(%rip),%eax        # 11000 <_ZL16g_is_first_ecall>
    32a5:	83 f0 01             	xor    $0x1,%eax
    32a8:	84 c0                	test   %al,%al
    32aa:	74 05                	je     32b1 <do_uninit_enclave+0x15e>
    {
        uninit_global_object();
    32ac:	e8 18 20 00 00       	callq  52c9 <uninit_global_object>
    }
    sgx_spin_unlock(&g_ife_lock);
    32b1:	48 8d 3d 18 de 00 00 	lea    0xde18(%rip),%rdi        # 110d0 <_ZL10g_ife_lock>
    32b8:	e8 a9 81 00 00       	callq  b466 <sgx_spin_unlock>
#else
    UNUSED(tcs);
#endif    
    set_enclave_state(ENCLAVE_CRASHED);
    32bd:	bf 03 00 00 00       	mov    $0x3,%edi
    32c2:	e8 b2 93 00 00       	callq  c679 <set_enclave_state>

    return SGX_SUCCESS;
    32c7:	b8 00 00 00 00       	mov    $0x0,%eax
}
    32cc:	c9                   	leaveq 
    32cd:	c3                   	retq   

00000000000032ce <trts_mprotect>:

extern sdk_version_t g_sdk_version;

extern "C" sgx_status_t trts_mprotect(size_t start, size_t size, uint64_t perms)
{
    32ce:	4c 8d 54 24 08       	lea    0x8(%rsp),%r10
    32d3:	48 83 e4 c0          	and    $0xffffffffffffffc0,%rsp
    32d7:	41 ff 72 f8          	pushq  -0x8(%r10)
    32db:	55                   	push   %rbp
    32dc:	48 89 e5             	mov    %rsp,%rbp
    32df:	41 52                	push   %r10
    32e1:	48 81 ec e8 00 00 00 	sub    $0xe8,%rsp
    32e8:	48 89 bd 38 ff ff ff 	mov    %rdi,-0xc8(%rbp)
    32ef:	48 89 b5 30 ff ff ff 	mov    %rsi,-0xd0(%rbp)
    32f6:	48 89 95 28 ff ff ff 	mov    %rdx,-0xd8(%rbp)
    32fd:	64 48 8b 04 25 28 00 	mov    %fs:0x28,%rax
    3304:	00 00 
    3306:	48 89 45 c8          	mov    %rax,-0x38(%rbp)
    330a:	31 c0                	xor    %eax,%eax
    int rc = -1;
    330c:	c7 85 40 ff ff ff ff 	movl   $0xffffffff,-0xc0(%rbp)
    3313:	ff ff ff 
    size_t page;
    sgx_status_t ret = SGX_SUCCESS;
    3316:	c7 85 44 ff ff ff 00 	movl   $0x0,-0xbc(%rbp)
    331d:	00 00 00 
    SE_DECLSPEC_ALIGN(sizeof(sec_info_t)) sec_info_t si;

    //Error return if start or size is not page-aligned or size is zero.
    if (!IS_PAGE_ALIGNED(start) || (size == 0) || !IS_PAGE_ALIGNED(size))
    3320:	48 8b 85 38 ff ff ff 	mov    -0xc8(%rbp),%rax
    3327:	25 ff 0f 00 00       	and    $0xfff,%eax
    332c:	48 85 c0             	test   %rax,%rax
    332f:	75 1b                	jne    334c <trts_mprotect+0x7e>
    3331:	48 83 bd 30 ff ff ff 	cmpq   $0x0,-0xd0(%rbp)
    3338:	00 
    3339:	74 11                	je     334c <trts_mprotect+0x7e>
    333b:	48 8b 85 30 ff ff ff 	mov    -0xd0(%rbp),%rax
    3342:	25 ff 0f 00 00       	and    $0xfff,%eax
    3347:	48 85 c0             	test   %rax,%rax
    334a:	74 0a                	je     3356 <trts_mprotect+0x88>
        return SGX_ERROR_INVALID_PARAMETER;
    334c:	b8 02 00 00 00       	mov    $0x2,%eax
    3351:	e9 0c 01 00 00       	jmpq   3462 <trts_mprotect+0x194>
    if (g_sdk_version == SDK_VERSION_2_0)
    3356:	48 8d 05 97 da 00 00 	lea    0xda97(%rip),%rax        # 10df4 <g_sdk_version>
    335d:	8b 00                	mov    (%rax),%eax
    335f:	83 f8 01             	cmp    $0x1,%eax
    3362:	75 3a                	jne    339e <trts_mprotect+0xd0>
    {
        ret = change_permissions_ocall(start, size, perms);
    3364:	48 8b 95 28 ff ff ff 	mov    -0xd8(%rbp),%rdx
    336b:	48 8b 8d 30 ff ff ff 	mov    -0xd0(%rbp),%rcx
    3372:	48 8b 85 38 ff ff ff 	mov    -0xc8(%rbp),%rax
    3379:	48 89 ce             	mov    %rcx,%rsi
    337c:	48 89 c7             	mov    %rax,%rdi
    337f:	e8 39 02 00 00       	callq  35bd <change_permissions_ocall>
    3384:	89 85 44 ff ff ff    	mov    %eax,-0xbc(%rbp)
        if (ret != SGX_SUCCESS)
    338a:	83 bd 44 ff ff ff 00 	cmpl   $0x0,-0xbc(%rbp)
    3391:	74 0b                	je     339e <trts_mprotect+0xd0>
            return ret;
    3393:	8b 85 44 ff ff ff    	mov    -0xbc(%rbp),%eax
    3399:	e9 c4 00 00 00       	jmpq   3462 <trts_mprotect+0x194>
    }

    si.flags = perms|SI_FLAG_REG|SI_FLAG_PR;
    339e:	48 8b 85 28 ff ff ff 	mov    -0xd8(%rbp),%rax
    33a5:	48 0d 20 02 00 00    	or     $0x220,%rax
    33ab:	48 89 85 50 ff ff ff 	mov    %rax,-0xb0(%rbp)
    memset(&si.reserved, 0, sizeof(si.reserved));
    33b2:	48 8d 85 50 ff ff ff 	lea    -0xb0(%rbp),%rax
    33b9:	48 83 c0 08          	add    $0x8,%rax
    33bd:	ba 38 00 00 00       	mov    $0x38,%edx
    33c2:	be 00 00 00 00       	mov    $0x0,%esi
    33c7:	48 89 c7             	mov    %rax,%rdi
    33ca:	e8 d1 7b 00 00       	callq  afa0 <memset>

    for(page = start; page < start + size; page += SE_PAGE_SIZE)
    33cf:	48 8b 85 38 ff ff ff 	mov    -0xc8(%rbp),%rax
    33d6:	48 89 85 48 ff ff ff 	mov    %rax,-0xb8(%rbp)
    33dd:	48 8b 95 38 ff ff ff 	mov    -0xc8(%rbp),%rdx
    33e4:	48 8b 85 30 ff ff ff 	mov    -0xd0(%rbp),%rax
    33eb:	48 01 d0             	add    %rdx,%rax
    33ee:	48 39 85 48 ff ff ff 	cmp    %rax,-0xb8(%rbp)
    33f5:	73 66                	jae    345d <trts_mprotect+0x18f>
    {
        do_emodpe(&si, page);
    33f7:	48 8b 95 48 ff ff ff 	mov    -0xb8(%rbp),%rdx
    33fe:	48 8d 85 50 ff ff ff 	lea    -0xb0(%rbp),%rax
    3405:	48 89 d6             	mov    %rdx,%rsi
    3408:	48 89 c7             	mov    %rax,%rdi
    340b:	e8 8a 95 00 00       	callq  c99a <do_emodpe>
        // If the target permission to set is RWX, no EMODPR, hence no EACCEPT.
        if ((perms & (SI_FLAG_W|SI_FLAG_X)) != (SI_FLAG_W|SI_FLAG_X))
    3410:	48 8b 85 28 ff ff ff 	mov    -0xd8(%rbp),%rax
    3417:	83 e0 06             	and    $0x6,%eax
    341a:	48 83 f8 06          	cmp    $0x6,%rax
    341e:	74 30                	je     3450 <trts_mprotect+0x182>
        {
            rc = do_eaccept(&si, page);
    3420:	48 8b 95 48 ff ff ff 	mov    -0xb8(%rbp),%rdx
    3427:	48 8d 85 50 ff ff ff 	lea    -0xb0(%rbp),%rax
    342e:	48 89 d6             	mov    %rdx,%rsi
    3431:	48 89 c7             	mov    %rax,%rdi
    3434:	e8 47 95 00 00       	callq  c980 <do_eaccept>
    3439:	89 85 40 ff ff ff    	mov    %eax,-0xc0(%rbp)
            if(rc != 0)
    343f:	83 bd 40 ff ff ff 00 	cmpl   $0x0,-0xc0(%rbp)
    3446:	74 08                	je     3450 <trts_mprotect+0x182>
                return (sgx_status_t)rc;
    3448:	8b 85 40 ff ff ff    	mov    -0xc0(%rbp),%eax
    344e:	eb 12                	jmp    3462 <trts_mprotect+0x194>
    for(page = start; page < start + size; page += SE_PAGE_SIZE)
    3450:	48 81 85 48 ff ff ff 	addq   $0x1000,-0xb8(%rbp)
    3457:	00 10 00 00 
    345b:	eb 80                	jmp    33dd <trts_mprotect+0x10f>
        }
    }

    return SGX_SUCCESS;
    345d:	b8 00 00 00 00       	mov    $0x0,%eax
}
    3462:	48 8b 4d c8          	mov    -0x38(%rbp),%rcx
    3466:	64 48 33 0c 25 28 00 	xor    %fs:0x28,%rcx
    346d:	00 00 
    346f:	74 05                	je     3476 <trts_mprotect+0x1a8>
    3471:	e8 64 1e 00 00       	callq  52da <__stack_chk_fail>
    3476:	48 81 c4 e8 00 00 00 	add    $0xe8,%rsp
    347d:	41 5a                	pop    %r10
    347f:	5d                   	pop    %rbp
    3480:	49 8d 62 f8          	lea    -0x8(%r10),%rsp
    3484:	c3                   	retq   

0000000000003485 <_Z20random_stack_advanceILj2048E9_status_tJjPvEJRiRS1_EET0_PFS4_DpT1_EDpOT2_>:
__attribute__((noinline)) static R _random_stack_noinline_wrapper(R(*f)(Ps...), Qs&&... args)
{
    return f(std::forward<Qs>(args)...);
}
template <unsigned M = 0x1000, class R, class... Ps, class... Qs>
R random_stack_advance(R(*f)(Ps...), Qs&&... args)
    3485:	55                   	push   %rbp
    3486:	48 89 e5             	mov    %rsp,%rbp
    3489:	41 57                	push   %r15
    348b:	41 56                	push   %r14
    348d:	41 55                	push   %r13
    348f:	41 54                	push   %r12
    3491:	53                   	push   %rbx
    3492:	48 83 ec 58          	sub    $0x58,%rsp
    3496:	48 89 7d 98          	mov    %rdi,-0x68(%rbp)
    349a:	48 89 75 90          	mov    %rsi,-0x70(%rbp)
    349e:	48 89 55 88          	mov    %rdx,-0x78(%rbp)
    34a2:	64 48 8b 04 25 28 00 	mov    %fs:0x28,%rax
    34a9:	00 00 
    34ab:	48 89 45 c8          	mov    %rax,-0x38(%rbp)
    34af:	31 c0                	xor    %eax,%eax
        memset((void *)dummy_vla, 0, size);
#else
    (void)(dummy_vla);
#endif

    return _random_stack_noinline_wrapper(f, std::forward<Qs>(args)...);
    34b1:	48 89 e0             	mov    %rsp,%rax
    34b4:	48 89 c3             	mov    %rax,%rbx
    unsigned size = rdrand() % M + 1;
    34b7:	e8 b2 00 00 00       	callq  356e <_Z6rdrandIjET_v>
    34bc:	25 ff 07 00 00       	and    $0x7ff,%eax
    34c1:	83 c0 01             	add    $0x1,%eax
    34c4:	89 45 a4             	mov    %eax,-0x5c(%rbp)
    volatile char dummy_vla[size];
    34c7:	8b 45 a4             	mov    -0x5c(%rbp),%eax
    34ca:	48 83 e8 01          	sub    $0x1,%rax
    34ce:	48 89 45 a8          	mov    %rax,-0x58(%rbp)
    34d2:	48 89 c2             	mov    %rax,%rdx
    34d5:	48 83 c2 01          	add    $0x1,%rdx
    34d9:	49 89 d6             	mov    %rdx,%r14
    34dc:	41 bf 00 00 00 00    	mov    $0x0,%r15d
    34e2:	48 89 c2             	mov    %rax,%rdx
    34e5:	48 83 c2 01          	add    $0x1,%rdx
    34e9:	49 89 d4             	mov    %rdx,%r12
    34ec:	41 bd 00 00 00 00    	mov    $0x0,%r13d
    34f2:	48 8d 50 01          	lea    0x1(%rax),%rdx
    34f6:	b8 10 00 00 00       	mov    $0x10,%eax
    34fb:	48 83 e8 01          	sub    $0x1,%rax
    34ff:	48 01 d0             	add    %rdx,%rax
    3502:	be 10 00 00 00       	mov    $0x10,%esi
    3507:	ba 00 00 00 00       	mov    $0x0,%edx
    350c:	48 f7 f6             	div    %rsi
    350f:	48 6b c0 10          	imul   $0x10,%rax,%rax
    3513:	48 29 c4             	sub    %rax,%rsp
    3516:	48 89 e0             	mov    %rsp,%rax
    3519:	48 83 c0 00          	add    $0x0,%rax
    351d:	48 89 45 b0          	mov    %rax,-0x50(%rbp)
    3521:	48 8b 45 88          	mov    -0x78(%rbp),%rax
    3525:	48 89 45 c0          	mov    %rax,-0x40(%rbp)
template <class _Tp>
inline _LIBCPP_INLINE_VISIBILITY _LIBCPP_CONSTEXPR_AFTER_CXX11
_Tp&&
forward(typename remove_reference<_Tp>::type& __t) _NOEXCEPT
{
    return static_cast<_Tp&&>(__t);
    3529:	48 8b 55 c0          	mov    -0x40(%rbp),%rdx
    352d:	48 8b 45 90          	mov    -0x70(%rbp),%rax
    3531:	48 89 45 b8          	mov    %rax,-0x48(%rbp)
    3535:	48 8b 4d b8          	mov    -0x48(%rbp),%rcx
    return _random_stack_noinline_wrapper(f, std::forward<Qs>(args)...);
    3539:	48 8b 45 98          	mov    -0x68(%rbp),%rax
    353d:	48 89 ce             	mov    %rcx,%rsi
    3540:	48 89 c7             	mov    %rax,%rdi
    3543:	e8 35 00 00 00       	callq  357d <_Z30_random_stack_noinline_wrapperI9_status_tJjPvEJRiRS1_EET_PFS4_DpT0_EDpOT1_>
    3548:	48 89 dc             	mov    %rbx,%rsp
}
    354b:	48 8b 4d c8          	mov    -0x38(%rbp),%rcx
    354f:	64 48 33 0c 25 28 00 	xor    %fs:0x28,%rcx
    3556:	00 00 
    3558:	74 05                	je     355f <_Z20random_stack_advanceILj2048E9_status_tJjPvEJRiRS1_EET0_PFS4_DpT1_EDpOT2_+0xda>
    355a:	e8 7b 1d 00 00       	callq  52da <__stack_chk_fail>
    355f:	48 8d 65 d8          	lea    -0x28(%rbp),%rsp
    3563:	5b                   	pop    %rbx
    3564:	41 5c                	pop    %r12
    3566:	41 5d                	pop    %r13
    3568:	41 5e                	pop    %r14
    356a:	41 5f                	pop    %r15
    356c:	5d                   	pop    %rbp
    356d:	c3                   	retq   

000000000000356e <_Z6rdrandIjET_v>:
inline R rdrand(void)
    356e:	55                   	push   %rbp
    356f:	48 89 e5             	mov    %rsp,%rbp
    __asm__ volatile ("rdrand %0" : "=r"(r));
    3572:	0f c7 f0             	rdrand %eax
    3575:	89 45 fc             	mov    %eax,-0x4(%rbp)
    return r;
    3578:	8b 45 fc             	mov    -0x4(%rbp),%eax
}
    357b:	5d                   	pop    %rbp
    357c:	c3                   	retq   

000000000000357d <_Z30_random_stack_noinline_wrapperI9_status_tJjPvEJRiRS1_EET_PFS4_DpT0_EDpOT1_>:
__attribute__((noinline)) static R _random_stack_noinline_wrapper(R(*f)(Ps...), Qs&&... args)
    357d:	55                   	push   %rbp
    357e:	48 89 e5             	mov    %rsp,%rbp
    3581:	48 83 ec 30          	sub    $0x30,%rsp
    3585:	48 89 7d e8          	mov    %rdi,-0x18(%rbp)
    3589:	48 89 75 e0          	mov    %rsi,-0x20(%rbp)
    358d:	48 89 55 d8          	mov    %rdx,-0x28(%rbp)
    3591:	48 8b 45 d8          	mov    -0x28(%rbp),%rax
    3595:	48 89 45 f8          	mov    %rax,-0x8(%rbp)
    3599:	48 8b 45 f8          	mov    -0x8(%rbp),%rax
    return f(std::forward<Qs>(args)...);
    359d:	48 8b 10             	mov    (%rax),%rdx
    35a0:	48 8b 45 e0          	mov    -0x20(%rbp),%rax
    35a4:	48 89 45 f0          	mov    %rax,-0x10(%rbp)
    35a8:	48 8b 45 f0          	mov    -0x10(%rbp),%rax
    35ac:	8b 00                	mov    (%rax),%eax
    35ae:	89 c1                	mov    %eax,%ecx
    35b0:	48 8b 45 e8          	mov    -0x18(%rbp),%rax
    35b4:	48 89 d6             	mov    %rdx,%rsi
    35b7:	89 cf                	mov    %ecx,%edi
    35b9:	ff d0                	callq  *%rax
}
    35bb:	c9                   	leaveq 
    35bc:	c3                   	retq   

00000000000035bd <change_permissions_ocall>:
    size_t ms_size;
    uint64_t ms_epcm_perms;
} ms_change_permissions_ocall_t;

sgx_status_t SGXAPI change_permissions_ocall(size_t addr, size_t size, uint64_t epcm_perms)
{
    35bd:	55                   	push   %rbp
    35be:	48 89 e5             	mov    %rsp,%rbp
    35c1:	48 83 ec 40          	sub    $0x40,%rsp
    35c5:	48 89 7d d8          	mov    %rdi,-0x28(%rbp)
    35c9:	48 89 75 d0          	mov    %rsi,-0x30(%rbp)
    35cd:	48 89 55 c8          	mov    %rdx,-0x38(%rbp)
    (void)addr;
    (void)size;
    (void)epcm_perms;
    return SGX_SUCCESS;
#else
    sgx_status_t status = SGX_SUCCESS;
    35d1:	c7 45 ec 00 00 00 00 	movl   $0x0,-0x14(%rbp)

    ms_change_permissions_ocall_t* ms;
    OCALLOC(ms, ms_change_permissions_ocall_t*, sizeof(*ms));
    35d8:	bf 18 00 00 00       	mov    $0x18,%edi
    35dd:	e8 43 de ff ff       	callq  1425 <sgx_ocalloc>
    35e2:	48 89 45 f0          	mov    %rax,-0x10(%rbp)
    35e6:	48 83 7d f0 00       	cmpq   $0x0,-0x10(%rbp)
    35eb:	75 0c                	jne    35f9 <change_permissions_ocall+0x3c>
    35ed:	e8 44 df ff ff       	callq  1536 <sgx_ocfree>
    35f2:	b8 01 00 00 00       	mov    $0x1,%eax
    35f7:	eb 47                	jmp    3640 <change_permissions_ocall+0x83>
    35f9:	48 8b 45 f0          	mov    -0x10(%rbp),%rax
    35fd:	48 89 45 f8          	mov    %rax,-0x8(%rbp)

    ms->ms_addr = addr;
    3601:	48 8b 45 f8          	mov    -0x8(%rbp),%rax
    3605:	48 8b 55 d8          	mov    -0x28(%rbp),%rdx
    3609:	48 89 10             	mov    %rdx,(%rax)
    ms->ms_size = size;
    360c:	48 8b 45 f8          	mov    -0x8(%rbp),%rax
    3610:	48 8b 55 d0          	mov    -0x30(%rbp),%rdx
    3614:	48 89 50 08          	mov    %rdx,0x8(%rax)
    ms->ms_epcm_perms = epcm_perms;
    3618:	48 8b 45 f8          	mov    -0x8(%rbp),%rax
    361c:	48 8b 55 c8          	mov    -0x38(%rbp),%rdx
    3620:	48 89 50 10          	mov    %rdx,0x10(%rax)
    status = sgx_ocall(EDMM_MODPR, ms);
    3624:	48 8b 45 f8          	mov    -0x8(%rbp),%rax
    3628:	48 89 c6             	mov    %rax,%rsi
    362b:	bf fc ff ff ff       	mov    $0xfffffffc,%edi
    3630:	e8 0d 00 00 00       	callq  3642 <sgx_ocall>
    3635:	89 45 ec             	mov    %eax,-0x14(%rbp)


    sgx_ocfree();
    3638:	e8 f9 de ff ff       	callq  1536 <sgx_ocfree>
    return status;
    363d:	8b 45 ec             	mov    -0x14(%rbp),%eax
#endif
}
    3640:	c9                   	leaveq 
    3641:	c3                   	retq   

0000000000003642 <sgx_ocall>:
//      ms - the mashalling structure
// Return Value:
//      OCALL status
//
sgx_status_t sgx_ocall(const unsigned int index, void *ms)
{
    3642:	55                   	push   %rbp
    3643:	48 89 e5             	mov    %rsp,%rbp
    3646:	48 83 ec 20          	sub    $0x20,%rsp
    364a:	89 7d ec             	mov    %edi,-0x14(%rbp)
    364d:	48 89 75 e0          	mov    %rsi,-0x20(%rbp)
    // the OCALL index should be within the ocall table range
    // -2, -3 and -4 -5 should be allowed to test SDK 2.0 features
    if((index != 0) && !is_builtin_ocall((int)index) &&
    3651:	83 7d ec 00          	cmpl   $0x0,-0x14(%rbp)
    3655:	74 29                	je     3680 <sgx_ocall+0x3e>
    3657:	8b 45 ec             	mov    -0x14(%rbp),%eax
    365a:	83 f8 fc             	cmp    $0xfffffffc,%eax
    365d:	7c 08                	jl     3667 <sgx_ocall+0x25>
    365f:	8b 45 ec             	mov    -0x14(%rbp),%eax
    3662:	83 f8 ff             	cmp    $0xffffffff,%eax
    3665:	7c 19                	jl     3680 <sgx_ocall+0x3e>
            static_cast<size_t>(index) >= g_dyn_entry_table.nr_ocall)
    3667:	8b 55 ec             	mov    -0x14(%rbp),%edx
    366a:	48 8d 05 8f 99 00 00 	lea    0x998f(%rip),%rax        # d000 <g_dyn_entry_table>
    3671:	48 8b 00             	mov    (%rax),%rax
    if((index != 0) && !is_builtin_ocall((int)index) &&
    3674:	48 39 c2             	cmp    %rax,%rdx
    3677:	72 07                	jb     3680 <sgx_ocall+0x3e>
    {
        return SGX_ERROR_INVALID_FUNCTION;
    3679:	b8 01 10 00 00       	mov    $0x1001,%eax
    367e:	eb 17                	jmp    3697 <sgx_ocall+0x55>
    }

    // do sgx_ocall
    sgx_status_t status = do_ocall(index, ms);
    3680:	48 8b 55 e0          	mov    -0x20(%rbp),%rdx
    3684:	8b 45 ec             	mov    -0x14(%rbp),%eax
    3687:	48 89 d6             	mov    %rdx,%rsi
    368a:	89 c7                	mov    %eax,%edi
    368c:	e8 42 92 00 00       	callq  c8d3 <__morestack>
    3691:	89 45 fc             	mov    %eax,-0x4(%rbp)

    return status;
    3694:	8b 45 fc             	mov    -0x4(%rbp),%eax
}
    3697:	c9                   	leaveq 
    3698:	c3                   	retq   

0000000000003699 <update_ocall_lastsp>:


extern "C"
uintptr_t update_ocall_lastsp(ocall_context_t* context)
{
    3699:	55                   	push   %rbp
    369a:	48 89 e5             	mov    %rsp,%rbp
    369d:	48 83 ec 30          	sub    $0x30,%rsp
    36a1:	48 89 7d d8          	mov    %rdi,-0x28(%rbp)
    thread_data_t* thread_data = get_thread_data();
    36a5:	e8 f5 8f 00 00       	callq  c69f <get_thread_data>
    36aa:	48 89 45 e8          	mov    %rax,-0x18(%rbp)

    uintptr_t last_sp = 0;
    36ae:	48 c7 45 f0 00 00 00 	movq   $0x0,-0x10(%rbp)
    36b5:	00 

    last_sp = thread_data->last_sp;
    36b6:	48 8b 45 e8          	mov    -0x18(%rbp),%rax
    36ba:	48 8b 40 08          	mov    0x8(%rax),%rax
    36be:	48 89 45 f0          	mov    %rax,-0x10(%rbp)

    context->pre_last_sp = last_sp;
    36c2:	48 8b 45 d8          	mov    -0x28(%rbp),%rax
    36c6:	48 8b 55 f0          	mov    -0x10(%rbp),%rdx
    36ca:	48 89 50 30          	mov    %rdx,0x30(%rax)

    if (context->pre_last_sp == thread_data->stack_base_addr)
    36ce:	48 8b 45 d8          	mov    -0x28(%rbp),%rax
    36d2:	48 8b 50 30          	mov    0x30(%rax),%rdx
    36d6:	48 8b 45 e8          	mov    -0x18(%rbp),%rax
    36da:	48 8b 40 10          	mov    0x10(%rax),%rax
    36de:	48 39 c2             	cmp    %rax,%rdx
    36e1:	75 11                	jne    36f4 <update_ocall_lastsp+0x5b>
    {
        context->ocall_depth = 1;
    36e3:	48 8b 45 d8          	mov    -0x28(%rbp),%rax
    36e7:	48 c7 80 90 00 00 00 	movq   $0x1,0x90(%rax)
    36ee:	01 00 00 00 
    36f2:	eb 26                	jmp    371a <update_ocall_lastsp+0x81>
    } else {
        // thread_data->last_sp is only set when ocall or exception handling occurs
        // ocall is block during exception handling, so last_sp is always ocall frame here
        ocall_context_t* context_pre = reinterpret_cast<ocall_context_t*>(context->pre_last_sp);
    36f4:	48 8b 45 d8          	mov    -0x28(%rbp),%rax
    36f8:	48 8b 40 30          	mov    0x30(%rax),%rax
    36fc:	48 89 45 f8          	mov    %rax,-0x8(%rbp)
        context->ocall_depth = context_pre->ocall_depth + 1;
    3700:	48 8b 45 f8          	mov    -0x8(%rbp),%rax
    3704:	48 8b 80 90 00 00 00 	mov    0x90(%rax),%rax
    370b:	48 8d 50 01          	lea    0x1(%rax),%rdx
    370f:	48 8b 45 d8          	mov    -0x28(%rbp),%rax
    3713:	48 89 90 90 00 00 00 	mov    %rdx,0x90(%rax)
    }

    thread_data->last_sp = reinterpret_cast<uintptr_t>(context);
    371a:	48 8b 55 d8          	mov    -0x28(%rbp),%rdx
    371e:	48 8b 45 e8          	mov    -0x18(%rbp),%rax
    3722:	48 89 50 08          	mov    %rdx,0x8(%rax)

    return last_sp;
    3726:	48 8b 45 f0          	mov    -0x10(%rbp),%rax
}
    372a:	c9                   	leaveq 
    372b:	c3                   	retq   

000000000000372c <do_oret>:

sgx_status_t do_oret(void *ms)
{
    372c:	55                   	push   %rbp
    372d:	48 89 e5             	mov    %rsp,%rbp
    3730:	48 83 ec 30          	sub    $0x30,%rsp
    3734:	48 89 7d d8          	mov    %rdi,-0x28(%rbp)
    3738:	64 48 8b 04 25 28 00 	mov    %fs:0x28,%rax
    373f:	00 00 
    3741:	48 89 45 f8          	mov    %rax,-0x8(%rbp)
    3745:	31 c0                	xor    %eax,%eax
    thread_data_t *thread_data = get_thread_data();
    3747:	e8 53 8f 00 00       	callq  c69f <get_thread_data>
    374c:	48 89 45 e8          	mov    %rax,-0x18(%rbp)
    uintptr_t last_sp = thread_data->last_sp;
    3750:	48 8b 45 e8          	mov    -0x18(%rbp),%rax
    3754:	48 8b 40 08          	mov    0x8(%rax),%rax
    3758:	48 89 45 f0          	mov    %rax,-0x10(%rbp)
    ocall_context_t *context = reinterpret_cast<ocall_context_t*>(thread_data->last_sp);
    375c:	48 8b 45 e8          	mov    -0x18(%rbp),%rax
    3760:	48 8b 40 08          	mov    0x8(%rax),%rax
    3764:	48 89 45 e0          	mov    %rax,-0x20(%rbp)
    if(0 == last_sp || last_sp <= (uintptr_t)&context)
    3768:	48 83 7d f0 00       	cmpq   $0x0,-0x10(%rbp)
    376d:	74 0a                	je     3779 <do_oret+0x4d>
    376f:	48 8d 45 e0          	lea    -0x20(%rbp),%rax
    3773:	48 39 45 f0          	cmp    %rax,-0x10(%rbp)
    3777:	77 0a                	ja     3783 <do_oret+0x57>
    {
        return SGX_ERROR_UNEXPECTED;
    3779:	b8 01 00 00 00       	mov    $0x1,%eax
    377e:	e9 87 00 00 00       	jmpq   380a <do_oret+0xde>
    }
    // At least 1 ecall frame and 1 ocall frame are expected on stack. 
    // 30 is an estimated value: 8 for enclave_entry and 22 for do_ocall.
    if(last_sp > thread_data->stack_base_addr - 30 * sizeof(size_t))
    3783:	48 8b 45 e8          	mov    -0x18(%rbp),%rax
    3787:	48 8b 40 10          	mov    0x10(%rax),%rax
    378b:	48 2d f0 00 00 00    	sub    $0xf0,%rax
    3791:	48 39 45 f0          	cmp    %rax,-0x10(%rbp)
    3795:	76 07                	jbe    379e <do_oret+0x72>
    {
        return SGX_ERROR_UNEXPECTED;
    3797:	b8 01 00 00 00       	mov    $0x1,%eax
    379c:	eb 6c                	jmp    380a <do_oret+0xde>
    }
    if(context->ocall_flag != OCALL_FLAG)
    379e:	48 8b 45 e0          	mov    -0x20(%rbp),%rax
    37a2:	48 8b 40 20          	mov    0x20(%rax),%rax
    37a6:	48 3d 44 49 43 4f    	cmp    $0x4f434944,%rax
    37ac:	74 07                	je     37b5 <do_oret+0x89>
    {
        return SGX_ERROR_UNEXPECTED;
    37ae:	b8 01 00 00 00       	mov    $0x1,%eax
    37b3:	eb 55                	jmp    380a <do_oret+0xde>
    }
    if(context->pre_last_sp > thread_data->stack_base_addr
    37b5:	48 8b 45 e0          	mov    -0x20(%rbp),%rax
    37b9:	48 8b 50 30          	mov    0x30(%rax),%rdx
    37bd:	48 8b 45 e8          	mov    -0x18(%rbp),%rax
    37c1:	48 8b 40 10          	mov    0x10(%rax),%rax
    37c5:	48 39 c2             	cmp    %rax,%rdx
    37c8:	77 11                	ja     37db <do_oret+0xaf>
       || context->pre_last_sp <= (uintptr_t)context)
    37ca:	48 8b 45 e0          	mov    -0x20(%rbp),%rax
    37ce:	48 8b 40 30          	mov    0x30(%rax),%rax
    37d2:	48 8b 55 e0          	mov    -0x20(%rbp),%rdx
    37d6:	48 39 d0             	cmp    %rdx,%rax
    37d9:	77 07                	ja     37e2 <do_oret+0xb6>
    {
        return SGX_ERROR_UNEXPECTED;
    37db:	b8 01 00 00 00       	mov    $0x1,%eax
    37e0:	eb 28                	jmp    380a <do_oret+0xde>
    }

    thread_data->last_sp = context->pre_last_sp;
    37e2:	48 8b 45 e0          	mov    -0x20(%rbp),%rax
    37e6:	48 8b 50 30          	mov    0x30(%rax),%rdx
    37ea:	48 8b 45 e8          	mov    -0x18(%rbp),%rax
    37ee:	48 89 50 08          	mov    %rdx,0x8(%rax)
    asm_oret(last_sp, ms);
    37f2:	48 8b 55 d8          	mov    -0x28(%rbp),%rdx
    37f6:	48 8b 45 f0          	mov    -0x10(%rbp),%rax
    37fa:	48 89 d6             	mov    %rdx,%rsi
    37fd:	48 89 c7             	mov    %rax,%rdi
    3800:	e8 dd 90 00 00       	callq  c8e2 <asm_oret>
    
    // Should not come here
    return SGX_ERROR_UNEXPECTED;
    3805:	b8 01 00 00 00       	mov    $0x1,%eax
}
    380a:	48 8b 4d f8          	mov    -0x8(%rbp),%rcx
    380e:	64 48 33 0c 25 28 00 	xor    %fs:0x28,%rcx
    3815:	00 00 
    3817:	74 05                	je     381e <do_oret+0xf2>
    3819:	e8 bc 1a 00 00       	callq  52da <__stack_chk_fail>
    381e:	c9                   	leaveq 
    381f:	c3                   	retq   

0000000000003820 <trim_range_ocall>:
typedef struct ms_trim_range_commit_ocall_t {
    size_t ms_addr;
} ms_trim_range_commit_ocall_t;

sgx_status_t SGXAPI trim_range_ocall(size_t fromaddr, size_t toaddr)
{
    3820:	55                   	push   %rbp
    3821:	48 89 e5             	mov    %rsp,%rbp
    3824:	48 83 ec 30          	sub    $0x30,%rsp
    3828:	48 89 7d d8          	mov    %rdi,-0x28(%rbp)
    382c:	48 89 75 d0          	mov    %rsi,-0x30(%rbp)
    sgx_status_t status = SGX_SUCCESS;
    3830:	c7 45 ec 00 00 00 00 	movl   $0x0,-0x14(%rbp)

    ms_trim_range_ocall_t* ms;
    OCALLOC(ms, ms_trim_range_ocall_t*, sizeof(*ms));
    3837:	bf 10 00 00 00       	mov    $0x10,%edi
    383c:	e8 e4 db ff ff       	callq  1425 <sgx_ocalloc>
    3841:	48 89 45 f0          	mov    %rax,-0x10(%rbp)
    3845:	48 83 7d f0 00       	cmpq   $0x0,-0x10(%rbp)
    384a:	75 0c                	jne    3858 <trim_range_ocall+0x38>
    384c:	e8 e5 dc ff ff       	callq  1536 <sgx_ocfree>
    3851:	b8 01 00 00 00       	mov    $0x1,%eax
    3856:	eb 3b                	jmp    3893 <trim_range_ocall+0x73>
    3858:	48 8b 45 f0          	mov    -0x10(%rbp),%rax
    385c:	48 89 45 f8          	mov    %rax,-0x8(%rbp)

    ms->ms_fromaddr = fromaddr;
    3860:	48 8b 45 f8          	mov    -0x8(%rbp),%rax
    3864:	48 8b 55 d8          	mov    -0x28(%rbp),%rdx
    3868:	48 89 10             	mov    %rdx,(%rax)
    ms->ms_toaddr = toaddr;
    386b:	48 8b 45 f8          	mov    -0x8(%rbp),%rax
    386f:	48 8b 55 d0          	mov    -0x30(%rbp),%rdx
    3873:	48 89 50 08          	mov    %rdx,0x8(%rax)
    status = sgx_ocall(EDMM_TRIM, ms);
    3877:	48 8b 45 f8          	mov    -0x8(%rbp),%rax
    387b:	48 89 c6             	mov    %rax,%rsi
    387e:	bf fe ff ff ff       	mov    $0xfffffffe,%edi
    3883:	e8 ba fd ff ff       	callq  3642 <sgx_ocall>
    3888:	89 45 ec             	mov    %eax,-0x14(%rbp)


    sgx_ocfree();
    388b:	e8 a6 dc ff ff       	callq  1536 <sgx_ocfree>
    return status;
    3890:	8b 45 ec             	mov    -0x14(%rbp),%eax
}
    3893:	c9                   	leaveq 
    3894:	c3                   	retq   

0000000000003895 <trim_range_commit_ocall>:

sgx_status_t SGXAPI trim_range_commit_ocall(size_t addr)
{
    3895:	55                   	push   %rbp
    3896:	48 89 e5             	mov    %rsp,%rbp
    3899:	48 83 ec 30          	sub    $0x30,%rsp
    389d:	48 89 7d d8          	mov    %rdi,-0x28(%rbp)
    sgx_status_t status = SGX_SUCCESS;
    38a1:	c7 45 ec 00 00 00 00 	movl   $0x0,-0x14(%rbp)

    ms_trim_range_commit_ocall_t* ms;
    OCALLOC(ms, ms_trim_range_commit_ocall_t*, sizeof(*ms));
    38a8:	bf 08 00 00 00       	mov    $0x8,%edi
    38ad:	e8 73 db ff ff       	callq  1425 <sgx_ocalloc>
    38b2:	48 89 45 f0          	mov    %rax,-0x10(%rbp)
    38b6:	48 83 7d f0 00       	cmpq   $0x0,-0x10(%rbp)
    38bb:	75 0c                	jne    38c9 <trim_range_commit_ocall+0x34>
    38bd:	e8 74 dc ff ff       	callq  1536 <sgx_ocfree>
    38c2:	b8 01 00 00 00       	mov    $0x1,%eax
    38c7:	eb 2f                	jmp    38f8 <trim_range_commit_ocall+0x63>
    38c9:	48 8b 45 f0          	mov    -0x10(%rbp),%rax
    38cd:	48 89 45 f8          	mov    %rax,-0x8(%rbp)

    ms->ms_addr = addr;
    38d1:	48 8b 45 f8          	mov    -0x8(%rbp),%rax
    38d5:	48 8b 55 d8          	mov    -0x28(%rbp),%rdx
    38d9:	48 89 10             	mov    %rdx,(%rax)
    status = sgx_ocall(EDMM_TRIM_COMMIT, ms);
    38dc:	48 8b 45 f8          	mov    -0x8(%rbp),%rax
    38e0:	48 89 c6             	mov    %rax,%rsi
    38e3:	bf fd ff ff ff       	mov    $0xfffffffd,%edi
    38e8:	e8 55 fd ff ff       	callq  3642 <sgx_ocall>
    38ed:	89 45 ec             	mov    %eax,-0x14(%rbp)


    sgx_ocfree();
    38f0:	e8 41 dc ff ff       	callq  1536 <sgx_ocfree>
    return status;
    38f5:	8b 45 ec             	mov    -0x14(%rbp),%eax
}
    38f8:	c9                   	leaveq 
    38f9:	c3                   	retq   

00000000000038fa <get_heap_base>:
{
    return (size_t)get_enclave_base() + (size_t)g_global_data.enclave_size - 1;
}

void * get_heap_base(void)
{
    38fa:	55                   	push   %rbp
    38fb:	48 89 e5             	mov    %rsp,%rbp
    return GET_PTR(void, &__ImageBase, g_global_data.heap_offset);
    38fe:	48 8d 05 7b 98 00 00 	lea    0x987b(%rip),%rax        # d180 <g_global_data>
    3905:	48 8b 40 08          	mov    0x8(%rax),%rax
    3909:	48 8d 15 f0 c6 ff ff 	lea    -0x3910(%rip),%rdx        # 0 <enclave.so>
    3910:	48 01 d0             	add    %rdx,%rax
}
    3913:	5d                   	pop    %rbp
    3914:	c3                   	retq   

0000000000003915 <get_heap_size>:

size_t get_heap_size(void)
{
    3915:	55                   	push   %rbp
    3916:	48 89 e5             	mov    %rsp,%rbp
    size_t heap_size = g_global_data.heap_size;
    3919:	48 8d 05 60 98 00 00 	lea    0x9860(%rip),%rax        # d180 <g_global_data>
    3920:	48 8b 40 10          	mov    0x10(%rax),%rax
    3924:	48 89 45 f8          	mov    %rax,-0x8(%rbp)
    if (EDMM_supported)
    3928:	48 8d 05 c1 d4 00 00 	lea    0xd4c1(%rip),%rax        # 10df0 <EDMM_supported>
    392f:	8b 00                	mov    (%rax),%eax
    3931:	85 c0                	test   %eax,%eax
    3933:	74 6c                	je     39a1 <get_heap_size+0x8c>
    {
        for(uint32_t i = 0; i < g_global_data.layout_entry_num; i++)
    3935:	c7 45 f4 00 00 00 00 	movl   $0x0,-0xc(%rbp)
    393c:	48 8d 05 3d 98 00 00 	lea    0x983d(%rip),%rax        # d180 <g_global_data>
    3943:	8b 80 28 01 00 00    	mov    0x128(%rax),%eax
    3949:	39 45 f4             	cmp    %eax,-0xc(%rbp)
    394c:	0f 92 c0             	setb   %al
    394f:	84 c0                	test   %al,%al
    3951:	74 4e                	je     39a1 <get_heap_size+0x8c>
        {
            if(g_global_data.layout_table[i].entry.id == LAYOUT_ID_HEAP_MAX)
    3953:	48 8d 05 26 98 00 00 	lea    0x9826(%rip),%rax        # d180 <g_global_data>
    395a:	8b 55 f4             	mov    -0xc(%rbp),%edx
    395d:	48 c1 e2 05          	shl    $0x5,%rdx
    3961:	48 01 d0             	add    %rdx,%rax
    3964:	48 05 30 01 00 00    	add    $0x130,%rax
    396a:	0f b7 00             	movzwl (%rax),%eax
    396d:	66 83 f8 03          	cmp    $0x3,%ax
    3971:	0f 94 c0             	sete   %al
    3974:	84 c0                	test   %al,%al
    3976:	74 23                	je     399b <get_heap_size+0x86>
            {
                heap_size += ((size_t)g_global_data.layout_table[i].entry.page_count << SE_PAGE_SHIFT);
    3978:	48 8d 05 01 98 00 00 	lea    0x9801(%rip),%rax        # d180 <g_global_data>
    397f:	8b 55 f4             	mov    -0xc(%rbp),%edx
    3982:	48 c1 e2 05          	shl    $0x5,%rdx
    3986:	48 01 d0             	add    %rdx,%rax
    3989:	48 05 34 01 00 00    	add    $0x134,%rax
    398f:	8b 00                	mov    (%rax),%eax
    3991:	89 c0                	mov    %eax,%eax
    3993:	48 c1 e0 0c          	shl    $0xc,%rax
    3997:	48 01 45 f8          	add    %rax,-0x8(%rbp)
        for(uint32_t i = 0; i < g_global_data.layout_entry_num; i++)
    399b:	83 45 f4 01          	addl   $0x1,-0xc(%rbp)
    399f:	eb 9b                	jmp    393c <get_heap_size+0x27>
            }
        }
    }
    return heap_size;
    39a1:	48 8b 45 f8          	mov    -0x8(%rbp),%rax
}
    39a5:	5d                   	pop    %rbp
    39a6:	c3                   	retq   

00000000000039a7 <get_heap_min_size>:

size_t get_heap_min_size(void)
{
    39a7:	55                   	push   %rbp
    39a8:	48 89 e5             	mov    %rsp,%rbp
    size_t heap_size = 0;
    39ab:	48 c7 45 f8 00 00 00 	movq   $0x0,-0x8(%rbp)
    39b2:	00 
    for(uint32_t i = 0; i < g_global_data.layout_entry_num; i++)
    39b3:	c7 45 f4 00 00 00 00 	movl   $0x0,-0xc(%rbp)
    39ba:	48 8d 05 bf 97 00 00 	lea    0x97bf(%rip),%rax        # d180 <g_global_data>
    39c1:	8b 80 28 01 00 00    	mov    0x128(%rax),%eax
    39c7:	39 45 f4             	cmp    %eax,-0xc(%rbp)
    39ca:	0f 92 c0             	setb   %al
    39cd:	84 c0                	test   %al,%al
    39cf:	74 50                	je     3a21 <get_heap_min_size+0x7a>
    {
        if(g_global_data.layout_table[i].entry.id == LAYOUT_ID_HEAP_MIN)
    39d1:	48 8d 05 a8 97 00 00 	lea    0x97a8(%rip),%rax        # d180 <g_global_data>
    39d8:	8b 55 f4             	mov    -0xc(%rbp),%edx
    39db:	48 c1 e2 05          	shl    $0x5,%rdx
    39df:	48 01 d0             	add    %rdx,%rax
    39e2:	48 05 30 01 00 00    	add    $0x130,%rax
    39e8:	0f b7 00             	movzwl (%rax),%eax
    39eb:	66 83 f8 01          	cmp    $0x1,%ax
    39ef:	0f 94 c0             	sete   %al
    39f2:	84 c0                	test   %al,%al
    39f4:	74 25                	je     3a1b <get_heap_min_size+0x74>
        {
            heap_size = ((size_t)g_global_data.layout_table[i].entry.page_count << SE_PAGE_SHIFT);
    39f6:	48 8d 05 83 97 00 00 	lea    0x9783(%rip),%rax        # d180 <g_global_data>
    39fd:	8b 55 f4             	mov    -0xc(%rbp),%edx
    3a00:	48 c1 e2 05          	shl    $0x5,%rdx
    3a04:	48 01 d0             	add    %rdx,%rax
    3a07:	48 05 34 01 00 00    	add    $0x134,%rax
    3a0d:	8b 00                	mov    (%rax),%eax
    3a0f:	89 c0                	mov    %eax,%eax
    3a11:	48 c1 e0 0c          	shl    $0xc,%rax
    3a15:	48 89 45 f8          	mov    %rax,-0x8(%rbp)
            break;
    3a19:	eb 06                	jmp    3a21 <get_heap_min_size+0x7a>
    for(uint32_t i = 0; i < g_global_data.layout_entry_num; i++)
    3a1b:	83 45 f4 01          	addl   $0x1,-0xc(%rbp)
    3a1f:	eb 99                	jmp    39ba <get_heap_min_size+0x13>
        }
    }
    return heap_size;
    3a21:	48 8b 45 f8          	mov    -0x8(%rbp),%rax
}
    3a25:	5d                   	pop    %rbp
    3a26:	c3                   	retq   

0000000000003a27 <get_rsrv_base>:

void * get_rsrv_base(void)
{
    3a27:	55                   	push   %rbp
    3a28:	48 89 e5             	mov    %rsp,%rbp
    return GET_PTR(void, &__ImageBase, g_global_data.rsrv_offset);
    3a2b:	48 8d 05 4e 97 00 00 	lea    0x974e(%rip),%rax        # d180 <g_global_data>
    3a32:	48 8b 40 18          	mov    0x18(%rax),%rax
    3a36:	48 8d 15 c3 c5 ff ff 	lea    -0x3a3d(%rip),%rdx        # 0 <enclave.so>
    3a3d:	48 01 d0             	add    %rdx,%rax
}
    3a40:	5d                   	pop    %rbp
    3a41:	c3                   	retq   

0000000000003a42 <get_rsrv_size>:
{
    return (size_t)get_rsrv_base() + (size_t)get_rsrv_size() - 1;
}

size_t get_rsrv_size(void)
{
    3a42:	55                   	push   %rbp
    3a43:	48 89 e5             	mov    %rsp,%rbp
    size_t rsrv_size = g_global_data.rsrv_size;
    3a46:	48 8d 05 33 97 00 00 	lea    0x9733(%rip),%rax        # d180 <g_global_data>
    3a4d:	48 8b 40 20          	mov    0x20(%rax),%rax
    3a51:	48 89 45 f8          	mov    %rax,-0x8(%rbp)
    if (EDMM_supported)
    3a55:	48 8d 05 94 d3 00 00 	lea    0xd394(%rip),%rax        # 10df0 <EDMM_supported>
    3a5c:	8b 00                	mov    (%rax),%eax
    3a5e:	85 c0                	test   %eax,%eax
    3a60:	74 6c                	je     3ace <get_rsrv_size+0x8c>
    {
        for (uint32_t i = 0; i < g_global_data.layout_entry_num; i++)
    3a62:	c7 45 f4 00 00 00 00 	movl   $0x0,-0xc(%rbp)
    3a69:	48 8d 05 10 97 00 00 	lea    0x9710(%rip),%rax        # d180 <g_global_data>
    3a70:	8b 80 28 01 00 00    	mov    0x128(%rax),%eax
    3a76:	39 45 f4             	cmp    %eax,-0xc(%rbp)
    3a79:	0f 92 c0             	setb   %al
    3a7c:	84 c0                	test   %al,%al
    3a7e:	74 4e                	je     3ace <get_rsrv_size+0x8c>
        {
            if (g_global_data.layout_table[i].entry.id == LAYOUT_ID_RSRV_MAX)
    3a80:	48 8d 05 f9 96 00 00 	lea    0x96f9(%rip),%rax        # d180 <g_global_data>
    3a87:	8b 55 f4             	mov    -0xc(%rbp),%edx
    3a8a:	48 c1 e2 05          	shl    $0x5,%rdx
    3a8e:	48 01 d0             	add    %rdx,%rax
    3a91:	48 05 30 01 00 00    	add    $0x130,%rax
    3a97:	0f b7 00             	movzwl (%rax),%eax
    3a9a:	66 83 f8 16          	cmp    $0x16,%ax
    3a9e:	0f 94 c0             	sete   %al
    3aa1:	84 c0                	test   %al,%al
    3aa3:	74 23                	je     3ac8 <get_rsrv_size+0x86>
            {
                rsrv_size += ((size_t)g_global_data.layout_table[i].entry.page_count << SE_PAGE_SHIFT);
    3aa5:	48 8d 05 d4 96 00 00 	lea    0x96d4(%rip),%rax        # d180 <g_global_data>
    3aac:	8b 55 f4             	mov    -0xc(%rbp),%edx
    3aaf:	48 c1 e2 05          	shl    $0x5,%rdx
    3ab3:	48 01 d0             	add    %rdx,%rax
    3ab6:	48 05 34 01 00 00    	add    $0x134,%rax
    3abc:	8b 00                	mov    (%rax),%eax
    3abe:	89 c0                	mov    %eax,%eax
    3ac0:	48 c1 e0 0c          	shl    $0xc,%rax
    3ac4:	48 01 45 f8          	add    %rax,-0x8(%rbp)
        for (uint32_t i = 0; i < g_global_data.layout_entry_num; i++)
    3ac8:	83 45 f4 01          	addl   $0x1,-0xc(%rbp)
    3acc:	eb 9b                	jmp    3a69 <get_rsrv_size+0x27>
            }
        }
    }
    return rsrv_size;
    3ace:	48 8b 45 f8          	mov    -0x8(%rbp),%rax
}
    3ad2:	5d                   	pop    %rbp
    3ad3:	c3                   	retq   

0000000000003ad4 <get_rsrv_min_size>:

size_t get_rsrv_min_size(void)
{
    3ad4:	55                   	push   %rbp
    3ad5:	48 89 e5             	mov    %rsp,%rbp
    size_t rsrv_size = 0;
    3ad8:	48 c7 45 f8 00 00 00 	movq   $0x0,-0x8(%rbp)
    3adf:	00 
    for (uint32_t i = 0; i < g_global_data.layout_entry_num; i++)
    3ae0:	c7 45 f4 00 00 00 00 	movl   $0x0,-0xc(%rbp)
    3ae7:	48 8d 05 92 96 00 00 	lea    0x9692(%rip),%rax        # d180 <g_global_data>
    3aee:	8b 80 28 01 00 00    	mov    0x128(%rax),%eax
    3af4:	39 45 f4             	cmp    %eax,-0xc(%rbp)
    3af7:	0f 92 c0             	setb   %al
    3afa:	84 c0                	test   %al,%al
    3afc:	74 50                	je     3b4e <get_rsrv_min_size+0x7a>
    {
        if (g_global_data.layout_table[i].entry.id == LAYOUT_ID_RSRV_MIN)
    3afe:	48 8d 05 7b 96 00 00 	lea    0x967b(%rip),%rax        # d180 <g_global_data>
    3b05:	8b 55 f4             	mov    -0xc(%rbp),%edx
    3b08:	48 c1 e2 05          	shl    $0x5,%rdx
    3b0c:	48 01 d0             	add    %rdx,%rax
    3b0f:	48 05 30 01 00 00    	add    $0x130,%rax
    3b15:	0f b7 00             	movzwl (%rax),%eax
    3b18:	66 83 f8 14          	cmp    $0x14,%ax
    3b1c:	0f 94 c0             	sete   %al
    3b1f:	84 c0                	test   %al,%al
    3b21:	74 25                	je     3b48 <get_rsrv_min_size+0x74>
        {
            rsrv_size = ((size_t)g_global_data.layout_table[i].entry.page_count << SE_PAGE_SHIFT);
    3b23:	48 8d 05 56 96 00 00 	lea    0x9656(%rip),%rax        # d180 <g_global_data>
    3b2a:	8b 55 f4             	mov    -0xc(%rbp),%edx
    3b2d:	48 c1 e2 05          	shl    $0x5,%rdx
    3b31:	48 01 d0             	add    %rdx,%rax
    3b34:	48 05 34 01 00 00    	add    $0x134,%rax
    3b3a:	8b 00                	mov    (%rax),%eax
    3b3c:	89 c0                	mov    %eax,%eax
    3b3e:	48 c1 e0 0c          	shl    $0xc,%rax
    3b42:	48 89 45 f8          	mov    %rax,-0x8(%rbp)
            break;
    3b46:	eb 06                	jmp    3b4e <get_rsrv_min_size+0x7a>
    for (uint32_t i = 0; i < g_global_data.layout_entry_num; i++)
    3b48:	83 45 f4 01          	addl   $0x1,-0xc(%rbp)
    3b4c:	eb 99                	jmp    3ae7 <get_rsrv_min_size+0x13>
        }
    }
    return rsrv_size;
    3b4e:	48 8b 45 f8          	mov    -0x8(%rbp),%rax
}
    3b52:	5d                   	pop    %rbp
    3b53:	c3                   	retq   

0000000000003b54 <get_errno_addr>:

int * get_errno_addr(void)
{
    3b54:	55                   	push   %rbp
    3b55:	48 89 e5             	mov    %rsp,%rbp
    3b58:	48 83 ec 10          	sub    $0x10,%rsp
    thread_data_t *thread_data = get_thread_data();
    3b5c:	e8 3e 8b 00 00       	callq  c69f <get_thread_data>
    3b61:	48 89 45 f8          	mov    %rax,-0x8(%rbp)
    return reinterpret_cast<int *>(&thread_data->last_error);
    3b65:	48 8b 45 f8          	mov    -0x8(%rbp),%rax
    3b69:	48 83 c0 40          	add    $0x40,%rax
}
    3b6d:	c9                   	leaveq 
    3b6e:	c3                   	retq   

0000000000003b6f <feature_supported>:
//Features listed in array[0], counting from right-most bit  to left-most bit,
//have feature shift values 0 ~ 62, while features listed in array[1], have feature
//shift values 64 ~ 126.

int feature_supported(const uint64_t *feature_set, uint32_t feature_shift)
{
    3b6f:	55                   	push   %rbp
    3b70:	48 89 e5             	mov    %rsp,%rbp
    3b73:	48 89 7d e8          	mov    %rdi,-0x18(%rbp)
    3b77:	89 75 e4             	mov    %esi,-0x1c(%rbp)
    const uint64_t *f_set = feature_set;
    3b7a:	48 8b 45 e8          	mov    -0x18(%rbp),%rax
    3b7e:	48 89 45 f8          	mov    %rax,-0x8(%rbp)
    uint32_t bit_position = 0, i = 0;
    3b82:	c7 45 f4 00 00 00 00 	movl   $0x0,-0xc(%rbp)
    3b89:	c7 45 f0 00 00 00 00 	movl   $0x0,-0x10(%rbp)

    if (!f_set)
    3b90:	48 83 7d f8 00       	cmpq   $0x0,-0x8(%rbp)
    3b95:	75 07                	jne    3b9e <feature_supported+0x2f>
        return 0;
    3b97:	b8 00 00 00 00       	mov    $0x0,%eax
    3b9c:	eb 79                	jmp    3c17 <feature_supported+0xa8>

    while (((i+1) << 6) <= feature_shift)
    3b9e:	8b 45 f0             	mov    -0x10(%rbp),%eax
    3ba1:	83 c0 01             	add    $0x1,%eax
    3ba4:	c1 e0 06             	shl    $0x6,%eax
    3ba7:	39 45 e4             	cmp    %eax,-0x1c(%rbp)
    3baa:	72 27                	jb     3bd3 <feature_supported+0x64>
    {
        if (f_set[i] & (0x1ULL << 63))
    3bac:	8b 45 f0             	mov    -0x10(%rbp),%eax
    3baf:	48 8d 14 c5 00 00 00 	lea    0x0(,%rax,8),%rdx
    3bb6:	00 
    3bb7:	48 8b 45 f8          	mov    -0x8(%rbp),%rax
    3bbb:	48 01 d0             	add    %rdx,%rax
    3bbe:	48 8b 00             	mov    (%rax),%rax
    3bc1:	48 85 c0             	test   %rax,%rax
    3bc4:	79 07                	jns    3bcd <feature_supported+0x5e>
            return 0;
    3bc6:	b8 00 00 00 00       	mov    $0x0,%eax
    3bcb:	eb 4a                	jmp    3c17 <feature_supported+0xa8>
        i++;
    3bcd:	83 45 f0 01          	addl   $0x1,-0x10(%rbp)
    while (((i+1) << 6) <= feature_shift)
    3bd1:	eb cb                	jmp    3b9e <feature_supported+0x2f>
    }
    bit_position = feature_shift - (i << 6);
    3bd3:	8b 45 f0             	mov    -0x10(%rbp),%eax
    3bd6:	c1 e0 06             	shl    $0x6,%eax
    3bd9:	89 c2                	mov    %eax,%edx
    3bdb:	8b 45 e4             	mov    -0x1c(%rbp),%eax
    3bde:	29 d0                	sub    %edx,%eax
    3be0:	89 45 f4             	mov    %eax,-0xc(%rbp)
    if (f_set[i] & (0x1ULL << bit_position))
    3be3:	8b 45 f0             	mov    -0x10(%rbp),%eax
    3be6:	48 8d 14 c5 00 00 00 	lea    0x0(,%rax,8),%rdx
    3bed:	00 
    3bee:	48 8b 45 f8          	mov    -0x8(%rbp),%rax
    3bf2:	48 01 d0             	add    %rdx,%rax
    3bf5:	48 8b 10             	mov    (%rax),%rdx
    3bf8:	8b 45 f4             	mov    -0xc(%rbp),%eax
    3bfb:	89 c1                	mov    %eax,%ecx
    3bfd:	48 d3 ea             	shr    %cl,%rdx
    3c00:	48 89 d0             	mov    %rdx,%rax
    3c03:	83 e0 01             	and    $0x1,%eax
    3c06:	48 85 c0             	test   %rax,%rax
    3c09:	74 07                	je     3c12 <feature_supported+0xa3>
        return 1;
    3c0b:	b8 01 00 00 00       	mov    $0x1,%eax
    3c10:	eb 05                	jmp    3c17 <feature_supported+0xa8>
    else
        return 0;
    3c12:	b8 00 00 00 00       	mov    $0x0,%eax
}
    3c17:	5d                   	pop    %rbp
    3c18:	c3                   	retq   

0000000000003c19 <is_stack_addr>:

bool is_stack_addr(void *address, size_t size)
{
    3c19:	55                   	push   %rbp
    3c1a:	48 89 e5             	mov    %rsp,%rbp
    3c1d:	48 83 ec 30          	sub    $0x30,%rsp
    3c21:	48 89 7d d8          	mov    %rdi,-0x28(%rbp)
    3c25:	48 89 75 d0          	mov    %rsi,-0x30(%rbp)
    thread_data_t *thread_data = get_thread_data();
    3c29:	e8 71 8a 00 00       	callq  c69f <get_thread_data>
    3c2e:	48 89 45 e0          	mov    %rax,-0x20(%rbp)
    size_t stack_base = thread_data->stack_base_addr;
    3c32:	48 8b 45 e0          	mov    -0x20(%rbp),%rax
    3c36:	48 8b 40 10          	mov    0x10(%rax),%rax
    3c3a:	48 89 45 e8          	mov    %rax,-0x18(%rbp)
    size_t stack_limit  = thread_data->stack_limit_addr;
    3c3e:	48 8b 45 e0          	mov    -0x20(%rbp),%rax
    3c42:	48 8b 40 18          	mov    0x18(%rax),%rax
    3c46:	48 89 45 f0          	mov    %rax,-0x10(%rbp)
    size_t addr = (size_t) address;
    3c4a:	48 8b 45 d8          	mov    -0x28(%rbp),%rax
    3c4e:	48 89 45 f8          	mov    %rax,-0x8(%rbp)
    return (addr <= (addr + size)) && (stack_base >= (addr + size)) && (stack_limit <= addr);
    3c52:	48 8b 55 f8          	mov    -0x8(%rbp),%rdx
    3c56:	48 8b 45 d0          	mov    -0x30(%rbp),%rax
    3c5a:	48 01 d0             	add    %rdx,%rax
    3c5d:	48 39 45 f8          	cmp    %rax,-0x8(%rbp)
    3c61:	77 22                	ja     3c85 <is_stack_addr+0x6c>
    3c63:	48 8b 55 f8          	mov    -0x8(%rbp),%rdx
    3c67:	48 8b 45 d0          	mov    -0x30(%rbp),%rax
    3c6b:	48 01 d0             	add    %rdx,%rax
    3c6e:	48 39 45 e8          	cmp    %rax,-0x18(%rbp)
    3c72:	72 11                	jb     3c85 <is_stack_addr+0x6c>
    3c74:	48 8b 45 f0          	mov    -0x10(%rbp),%rax
    3c78:	48 3b 45 f8          	cmp    -0x8(%rbp),%rax
    3c7c:	77 07                	ja     3c85 <is_stack_addr+0x6c>
    3c7e:	b8 01 00 00 00       	mov    $0x1,%eax
    3c83:	eb 05                	jmp    3c8a <is_stack_addr+0x71>
    3c85:	b8 00 00 00 00       	mov    $0x0,%eax
}
    3c8a:	c9                   	leaveq 
    3c8b:	c3                   	retq   

0000000000003c8c <is_valid_sp>:

bool is_valid_sp(uintptr_t sp)
{
    3c8c:	55                   	push   %rbp
    3c8d:	48 89 e5             	mov    %rsp,%rbp
    3c90:	48 83 ec 10          	sub    $0x10,%rsp
    3c94:	48 89 7d f8          	mov    %rdi,-0x8(%rbp)
    return ( !(sp & (sizeof(uintptr_t) - 1))   // sp is expected to be 4/8 bytes aligned
    3c98:	48 8b 45 f8          	mov    -0x8(%rbp),%rax
    3c9c:	83 e0 07             	and    $0x7,%eax
           && is_stack_addr((void*)sp, 0) );   // sp points to the top/bottom of stack are accepted
    3c9f:	48 85 c0             	test   %rax,%rax
    3ca2:	75 1c                	jne    3cc0 <is_valid_sp+0x34>
    3ca4:	48 8b 45 f8          	mov    -0x8(%rbp),%rax
    3ca8:	be 00 00 00 00       	mov    $0x0,%esi
    3cad:	48 89 c7             	mov    %rax,%rdi
    3cb0:	e8 64 ff ff ff       	callq  3c19 <is_stack_addr>
    3cb5:	84 c0                	test   %al,%al
    3cb7:	74 07                	je     3cc0 <is_valid_sp+0x34>
    3cb9:	b8 01 00 00 00       	mov    $0x1,%eax
    3cbe:	eb 05                	jmp    3cc5 <is_valid_sp+0x39>
    3cc0:	b8 00 00 00 00       	mov    $0x0,%eax
}
    3cc5:	c9                   	leaveq 
    3cc6:	c3                   	retq   

0000000000003cc7 <is_utility_thread>:


bool is_utility_thread()
{
    3cc7:	55                   	push   %rbp
    3cc8:	48 89 e5             	mov    %rsp,%rbp
    3ccb:	48 83 ec 10          	sub    $0x10,%rsp
    thread_data_t *thread_data = get_thread_data();
    3ccf:	e8 cb 89 00 00       	callq  c69f <get_thread_data>
    3cd4:	48 89 45 f8          	mov    %rax,-0x8(%rbp)
    if ((thread_data != NULL) && (thread_data->flags & SGX_UTILITY_THREAD))
    3cd8:	48 83 7d f8 00       	cmpq   $0x0,-0x8(%rbp)
    3cdd:	74 17                	je     3cf6 <is_utility_thread+0x2f>
    3cdf:	48 8b 45 f8          	mov    -0x8(%rbp),%rax
    3ce3:	48 8b 40 30          	mov    0x30(%rax),%rax
    3ce7:	83 e0 01             	and    $0x1,%eax
    3cea:	48 85 c0             	test   %rax,%rax
    3ced:	74 07                	je     3cf6 <is_utility_thread+0x2f>
    {
        return true;
    3cef:	b8 01 00 00 00       	mov    $0x1,%eax
    3cf4:	eb 05                	jmp    3cfb <is_utility_thread+0x34>
    }
    return false;
    3cf6:	b8 00 00 00 00       	mov    $0x0,%eax
}
    3cfb:	c9                   	leaveq 
    3cfc:	c3                   	retq   

0000000000003cfd <internal_handle_exception>:
// internal_handle_exception(sgx_exception_info_t *info):
//      the 2nd phrase exception handing, which traverse registered exception handlers.
//      if the exception can be handled, then continue execution
//      otherwise, throw abortion, go back to 1st phrase, and call the default handler.
extern "C" __attribute__((regparm(1))) void internal_handle_exception(sgx_exception_info_t *info)
{
    3cfd:	55                   	push   %rbp
    3cfe:	48 89 e5             	mov    %rsp,%rbp
    3d01:	48 83 ec 50          	sub    $0x50,%rsp
    3d05:	48 89 7d b8          	mov    %rdi,-0x48(%rbp)
    int status = EXCEPTION_CONTINUE_SEARCH;
    3d09:	c7 45 c4 00 00 00 00 	movl   $0x0,-0x3c(%rbp)
    handler_node_t *node = NULL;
    3d10:	48 c7 45 c8 00 00 00 	movq   $0x0,-0x38(%rbp)
    3d17:	00 
    thread_data_t *thread_data = get_thread_data();
    3d18:	e8 82 89 00 00       	callq  c69f <get_thread_data>
    3d1d:	48 89 45 e0          	mov    %rax,-0x20(%rbp)
    size_t size = 0;
    3d21:	48 c7 45 d0 00 00 00 	movq   $0x0,-0x30(%rbp)
    3d28:	00 
    uintptr_t *nhead = NULL;
    3d29:	48 c7 45 e8 00 00 00 	movq   $0x0,-0x18(%rbp)
    3d30:	00 
    uintptr_t *ntmp = NULL;
    3d31:	48 c7 45 d8 00 00 00 	movq   $0x0,-0x28(%rbp)
    3d38:	00 
    uintptr_t xsp = 0;
    3d39:	48 c7 45 f0 00 00 00 	movq   $0x0,-0x10(%rbp)
    3d40:	00 

    if (thread_data->exception_flag < 0)
    3d41:	48 8b 45 e0          	mov    -0x20(%rbp),%rax
    3d45:	48 8b 40 60          	mov    0x60(%rax),%rax
    3d49:	48 85 c0             	test   %rax,%rax
    3d4c:	0f 88 8c 01 00 00    	js     3ede <internal_handle_exception+0x1e1>
        goto failed_end;
    thread_data->exception_flag++;
    3d52:	48 8b 45 e0          	mov    -0x20(%rbp),%rax
    3d56:	48 8b 40 60          	mov    0x60(%rax),%rax
    3d5a:	48 8d 50 01          	lea    0x1(%rax),%rdx
    3d5e:	48 8b 45 e0          	mov    -0x20(%rbp),%rax
    3d62:	48 89 50 60          	mov    %rdx,0x60(%rax)

    // read lock
    sgx_spin_lock(&g_handler_lock);
    3d66:	48 8d 3d 73 d3 00 00 	lea    0xd373(%rip),%rdi        # 110e0 <_ZL14g_handler_lock>
    3d6d:	e8 8d 76 00 00       	callq  b3ff <sgx_spin_lock>

    node = g_first_node;
    3d72:	48 8b 05 5f d3 00 00 	mov    0xd35f(%rip),%rax        # 110d8 <_ZL12g_first_node>
    3d79:	48 89 45 c8          	mov    %rax,-0x38(%rbp)
    while(node != NULL)
    3d7d:	48 83 7d c8 00       	cmpq   $0x0,-0x38(%rbp)
    3d82:	74 13                	je     3d97 <internal_handle_exception+0x9a>
    {
        size += sizeof(uintptr_t);
    3d84:	48 83 45 d0 08       	addq   $0x8,-0x30(%rbp)
        node = node->next;
    3d89:	48 8b 45 c8          	mov    -0x38(%rbp),%rax
    3d8d:	48 8b 40 08          	mov    0x8(%rax),%rax
    3d91:	48 89 45 c8          	mov    %rax,-0x38(%rbp)
    while(node != NULL)
    3d95:	eb e6                	jmp    3d7d <internal_handle_exception+0x80>
    }

    // There's no exception handler registered
    if (size == 0)
    3d97:	48 83 7d d0 00       	cmpq   $0x0,-0x30(%rbp)
    3d9c:	75 24                	jne    3dc2 <internal_handle_exception+0xc5>
    {
        sgx_spin_unlock(&g_handler_lock);
    3d9e:	48 8d 3d 3b d3 00 00 	lea    0xd33b(%rip),%rdi        # 110e0 <_ZL14g_handler_lock>
    3da5:	e8 bc 76 00 00       	callq  b466 <sgx_spin_unlock>

        //exception cannot be handled
        thread_data->exception_flag = -1;
    3daa:	48 8b 45 e0          	mov    -0x20(%rbp),%rax
    3dae:	48 c7 40 60 ff ff ff 	movq   $0xffffffffffffffff,0x60(%rax)
    3db5:	ff 

        //instruction triggering the exception will be executed again.
        continue_execution(info);
    3db6:	48 8b 45 b8          	mov    -0x48(%rbp),%rax
    3dba:	48 89 c7             	mov    %rax,%rdi
    3dbd:	e8 1b 8c 00 00       	callq  c9dd <continue_execution>
    }

    if ((nhead = (uintptr_t *)malloc(size)) == NULL)
    3dc2:	48 8b 45 d0          	mov    -0x30(%rbp),%rax
    3dc6:	48 89 c7             	mov    %rax,%rdi
    3dc9:	e8 da 4f 00 00       	callq  8da8 <dlmalloc>
    3dce:	48 89 45 e8          	mov    %rax,-0x18(%rbp)
    3dd2:	48 83 7d e8 00       	cmpq   $0x0,-0x18(%rbp)
    3dd7:	0f 94 c0             	sete   %al
    3dda:	84 c0                	test   %al,%al
    3ddc:	74 11                	je     3def <internal_handle_exception+0xf2>
    {
        sgx_spin_unlock(&g_handler_lock);
    3dde:	48 8d 3d fb d2 00 00 	lea    0xd2fb(%rip),%rdi        # 110e0 <_ZL14g_handler_lock>
    3de5:	e8 7c 76 00 00       	callq  b466 <sgx_spin_unlock>
        goto failed_end;
    3dea:	e9 f3 00 00 00       	jmpq   3ee2 <internal_handle_exception+0x1e5>
    }
    ntmp = nhead;
    3def:	48 8b 45 e8          	mov    -0x18(%rbp),%rax
    3df3:	48 89 45 d8          	mov    %rax,-0x28(%rbp)
    node = g_first_node;
    3df7:	48 8b 05 da d2 00 00 	mov    0xd2da(%rip),%rax        # 110d8 <_ZL12g_first_node>
    3dfe:	48 89 45 c8          	mov    %rax,-0x38(%rbp)
    while(node != NULL)
    3e02:	48 83 7d c8 00       	cmpq   $0x0,-0x38(%rbp)
    3e07:	74 21                	je     3e2a <internal_handle_exception+0x12d>
    {
        *ntmp = node->callback;
    3e09:	48 8b 45 c8          	mov    -0x38(%rbp),%rax
    3e0d:	48 8b 10             	mov    (%rax),%rdx
    3e10:	48 8b 45 d8          	mov    -0x28(%rbp),%rax
    3e14:	48 89 10             	mov    %rdx,(%rax)
        ntmp++;
    3e17:	48 83 45 d8 08       	addq   $0x8,-0x28(%rbp)
        node = node->next;
    3e1c:	48 8b 45 c8          	mov    -0x38(%rbp),%rax
    3e20:	48 8b 40 08          	mov    0x8(%rax),%rax
    3e24:	48 89 45 c8          	mov    %rax,-0x38(%rbp)
    while(node != NULL)
    3e28:	eb d8                	jmp    3e02 <internal_handle_exception+0x105>
    }

    // read unlock
    sgx_spin_unlock(&g_handler_lock);
    3e2a:	48 8d 3d af d2 00 00 	lea    0xd2af(%rip),%rdi        # 110e0 <_ZL14g_handler_lock>
    3e31:	e8 30 76 00 00       	callq  b466 <sgx_spin_unlock>

    // call exception handler until EXCEPTION_CONTINUE_EXECUTION is returned
    ntmp = nhead;
    3e36:	48 8b 45 e8          	mov    -0x18(%rbp),%rax
    3e3a:	48 89 45 d8          	mov    %rax,-0x28(%rbp)
    while(size > 0)
    3e3e:	48 83 7d d0 00       	cmpq   $0x0,-0x30(%rbp)
    3e43:	74 38                	je     3e7d <internal_handle_exception+0x180>
    {
        sgx_exception_handler_t handler = DEC_VEH_POINTER(*ntmp);
    3e45:	48 8b 45 d8          	mov    -0x28(%rbp),%rax
    3e49:	48 8b 10             	mov    (%rax),%rdx
    3e4c:	48 8b 05 95 d2 00 00 	mov    0xd295(%rip),%rax        # 110e8 <_ZL12g_veh_cookie>
    3e53:	48 31 d0             	xor    %rdx,%rax
    3e56:	48 89 45 f8          	mov    %rax,-0x8(%rbp)
        status = handler(info);
    3e5a:	48 8b 55 b8          	mov    -0x48(%rbp),%rdx
    3e5e:	48 8b 45 f8          	mov    -0x8(%rbp),%rax
    3e62:	48 89 d7             	mov    %rdx,%rdi
    3e65:	ff d0                	callq  *%rax
    3e67:	89 45 c4             	mov    %eax,-0x3c(%rbp)
        if(EXCEPTION_CONTINUE_EXECUTION == status)
    3e6a:	83 7d c4 ff          	cmpl   $0xffffffff,-0x3c(%rbp)
    3e6e:	74 0c                	je     3e7c <internal_handle_exception+0x17f>
        {
            break;
        }
        ntmp++;
    3e70:	48 83 45 d8 08       	addq   $0x8,-0x28(%rbp)
        size -= sizeof(sgx_exception_handler_t);
    3e75:	48 83 6d d0 08       	subq   $0x8,-0x30(%rbp)
    while(size > 0)
    3e7a:	eb c2                	jmp    3e3e <internal_handle_exception+0x141>
            break;
    3e7c:	90                   	nop
    }
    free(nhead);
    3e7d:	48 8b 45 e8          	mov    -0x18(%rbp),%rax
    3e81:	48 89 c7             	mov    %rax,%rdi
    3e84:	e8 16 5a 00 00       	callq  989f <dlfree>

    // call default handler
    // ignore invalid return value, treat to EXCEPTION_CONTINUE_SEARCH
    // check SP to be written on SSA is pointing to the trusted stack
    xsp = info->cpu_context.REG(sp);
    3e89:	48 8b 45 b8          	mov    -0x48(%rbp),%rax
    3e8d:	48 8b 40 20          	mov    0x20(%rax),%rax
    3e91:	48 89 45 f0          	mov    %rax,-0x10(%rbp)
    if (!is_valid_sp(xsp))
    3e95:	48 8b 45 f0          	mov    -0x10(%rbp),%rax
    3e99:	48 89 c7             	mov    %rax,%rdi
    3e9c:	e8 eb fd ff ff       	callq  3c8c <is_valid_sp>
    3ea1:	83 f0 01             	xor    $0x1,%eax
    3ea4:	84 c0                	test   %al,%al
    3ea6:	75 39                	jne    3ee1 <internal_handle_exception+0x1e4>
    {
        goto failed_end;
    }

    if(EXCEPTION_CONTINUE_EXECUTION == status)
    3ea8:	83 7d c4 ff          	cmpl   $0xffffffff,-0x3c(%rbp)
    3eac:	75 16                	jne    3ec4 <internal_handle_exception+0x1c7>
    {
        //exception is handled, decrease the nested exception count
        thread_data->exception_flag--;
    3eae:	48 8b 45 e0          	mov    -0x20(%rbp),%rax
    3eb2:	48 8b 40 60          	mov    0x60(%rax),%rax
    3eb6:	48 8d 50 ff          	lea    -0x1(%rax),%rdx
    3eba:	48 8b 45 e0          	mov    -0x20(%rbp),%rax
    3ebe:	48 89 50 60          	mov    %rdx,0x60(%rax)
    3ec2:	eb 0c                	jmp    3ed0 <internal_handle_exception+0x1d3>
    }
    else
    {
        //exception cannot be handled
        thread_data->exception_flag = -1;
    3ec4:	48 8b 45 e0          	mov    -0x20(%rbp),%rax
    3ec8:	48 c7 40 60 ff ff ff 	movq   $0xffffffffffffffff,0x60(%rax)
    3ecf:	ff 
    }

    //instruction triggering the exception will be executed again.
    continue_execution(info);
    3ed0:	48 8b 45 b8          	mov    -0x48(%rbp),%rax
    3ed4:	48 89 c7             	mov    %rax,%rdi
    3ed7:	e8 01 8b 00 00       	callq  c9dd <continue_execution>
    3edc:	eb 04                	jmp    3ee2 <internal_handle_exception+0x1e5>
        goto failed_end;
    3ede:	90                   	nop
    3edf:	eb 01                	jmp    3ee2 <internal_handle_exception+0x1e5>
        goto failed_end;
    3ee1:	90                   	nop

failed_end:
    thread_data->exception_flag = -1; // mark the current exception cannot be handled
    3ee2:	48 8b 45 e0          	mov    -0x20(%rbp),%rax
    3ee6:	48 c7 40 60 ff ff ff 	movq   $0xffffffffffffffff,0x60(%rax)
    3eed:	ff 
    abort();    // throw abortion
    3eee:	e8 db 8a 00 00       	callq  c9ce <abort>

0000000000003ef3 <_ZL21expand_stack_by_pagesPvm>:
}

static int expand_stack_by_pages(void *start_addr, size_t page_count)
{
    3ef3:	55                   	push   %rbp
    3ef4:	48 89 e5             	mov    %rsp,%rbp
    3ef7:	48 83 ec 20          	sub    $0x20,%rsp
    3efb:	48 89 7d e8          	mov    %rdi,-0x18(%rbp)
    3eff:	48 89 75 e0          	mov    %rsi,-0x20(%rbp)
    int ret = -1;
    3f03:	c7 45 fc ff ff ff ff 	movl   $0xffffffff,-0x4(%rbp)

    if ((start_addr == NULL) || (page_count == 0))
    3f0a:	48 83 7d e8 00       	cmpq   $0x0,-0x18(%rbp)
    3f0f:	74 07                	je     3f18 <_ZL21expand_stack_by_pagesPvm+0x25>
    3f11:	48 83 7d e0 00       	cmpq   $0x0,-0x20(%rbp)
    3f16:	75 07                	jne    3f1f <_ZL21expand_stack_by_pagesPvm+0x2c>
        return -1;
    3f18:	b8 ff ff ff ff       	mov    $0xffffffff,%eax
    3f1d:	eb 19                	jmp    3f38 <_ZL21expand_stack_by_pagesPvm+0x45>

    ret = apply_pages_within_exception(start_addr, page_count);
    3f1f:	48 8b 55 e0          	mov    -0x20(%rbp),%rdx
    3f23:	48 8b 45 e8          	mov    -0x18(%rbp),%rax
    3f27:	48 89 d6             	mov    %rdx,%rsi
    3f2a:	48 89 c7             	mov    %rax,%rdi
    3f2d:	e8 7c e2 ff ff       	callq  21ae <apply_pages_within_exception>
    3f32:	89 45 fc             	mov    %eax,-0x4(%rbp)
    return ret;
    3f35:	8b 45 fc             	mov    -0x4(%rbp),%eax
}
    3f38:	c9                   	leaveq 
    3f39:	c3                   	retq   

0000000000003f3a <trts_handle_exception>:
//      the pointer of TCS
// Return Value
//      none zero - success
//              0 - fail
extern "C" sgx_status_t trts_handle_exception(void *tcs)
{
    3f3a:	55                   	push   %rbp
    3f3b:	48 89 e5             	mov    %rsp,%rbp
    3f3e:	48 83 ec 50          	sub    $0x50,%rsp
    3f42:	48 89 7d b8          	mov    %rdi,-0x48(%rbp)
    thread_data_t *thread_data = get_thread_data();
    3f46:	e8 54 87 00 00       	callq  c69f <get_thread_data>
    3f4b:	48 89 45 c8          	mov    %rax,-0x38(%rbp)
    ssa_gpr_t *ssa_gpr = NULL;
    3f4f:	48 c7 45 d0 00 00 00 	movq   $0x0,-0x30(%rbp)
    3f56:	00 
    sgx_exception_info_t *info = NULL;
    3f57:	48 c7 45 d8 00 00 00 	movq   $0x0,-0x28(%rbp)
    3f5e:	00 
    uintptr_t sp, *new_sp = NULL;
    3f5f:	48 c7 45 e0 00 00 00 	movq   $0x0,-0x20(%rbp)
    3f66:	00 
    size_t size = 0;
    3f67:	48 c7 45 e8 00 00 00 	movq   $0x0,-0x18(%rbp)
    3f6e:	00 

    if ((thread_data == NULL) || (tcs == NULL)) goto default_handler;
    3f6f:	48 83 7d c8 00       	cmpq   $0x0,-0x38(%rbp)
    3f74:	0f 84 86 04 00 00    	je     4400 <trts_handle_exception+0x4c6>
    3f7a:	48 83 7d b8 00       	cmpq   $0x0,-0x48(%rbp)
    3f7f:	0f 84 7b 04 00 00    	je     4400 <trts_handle_exception+0x4c6>
    if (check_static_stack_canary(tcs) != 0)
    3f85:	48 8b 45 b8          	mov    -0x48(%rbp),%rax
    3f89:	48 89 c7             	mov    %rax,%rdi
    3f8c:	e8 53 d7 ff ff       	callq  16e4 <check_static_stack_canary>
    3f91:	85 c0                	test   %eax,%eax
    3f93:	0f 95 c0             	setne  %al
    3f96:	84 c0                	test   %al,%al
    3f98:	0f 85 65 04 00 00    	jne    4403 <trts_handle_exception+0x4c9>
        goto default_handler;
 
    if(get_enclave_state() != ENCLAVE_INIT_DONE)
    3f9e:	e8 c9 86 00 00       	callq  c66c <get_enclave_state>
    3fa3:	83 f8 02             	cmp    $0x2,%eax
    3fa6:	0f 95 c0             	setne  %al
    3fa9:	84 c0                	test   %al,%al
    3fab:	0f 85 55 04 00 00    	jne    4406 <trts_handle_exception+0x4cc>
    {
        goto default_handler;
    }
    
    // check if the exception is raised from 2nd phrase
    if(thread_data->exception_flag == -1) {
    3fb1:	48 8b 45 c8          	mov    -0x38(%rbp),%rax
    3fb5:	48 8b 40 60          	mov    0x60(%rax),%rax
    3fb9:	48 83 f8 ff          	cmp    $0xffffffffffffffff,%rax
    3fbd:	0f 84 46 04 00 00    	je     4409 <trts_handle_exception+0x4cf>
        goto default_handler;
    }
 
    if ((TD2TCS(thread_data) != tcs) 
    3fc3:	48 8b 45 c8          	mov    -0x38(%rbp),%rax
    3fc7:	48 8b 40 10          	mov    0x10(%rax),%rax
    3fcb:	48 05 b0 02 01 00    	add    $0x102b0,%rax
    3fd1:	48 39 45 b8          	cmp    %rax,-0x48(%rbp)
    3fd5:	0f 85 25 04 00 00    	jne    4400 <trts_handle_exception+0x4c6>
            || (((thread_data->first_ssa_gpr)&(~0xfff)) - SE_PAGE_SIZE) != (uintptr_t)tcs) {
    3fdb:	48 8b 45 c8          	mov    -0x38(%rbp),%rax
    3fdf:	48 8b 40 20          	mov    0x20(%rax),%rax
    3fe3:	48 25 00 f0 ff ff    	and    $0xfffffffffffff000,%rax
    3fe9:	48 8d 90 00 f0 ff ff 	lea    -0x1000(%rax),%rdx
    3ff0:	48 8b 45 b8          	mov    -0x48(%rbp),%rax
    3ff4:	48 39 c2             	cmp    %rax,%rdx
    3ff7:	0f 85 03 04 00 00    	jne    4400 <trts_handle_exception+0x4c6>
        goto default_handler;
    }

    // no need to check the result of ssa_gpr because thread_data is always trusted
    ssa_gpr = reinterpret_cast<ssa_gpr_t *>(thread_data->first_ssa_gpr);
    3ffd:	48 8b 45 c8          	mov    -0x38(%rbp),%rax
    4001:	48 8b 40 20          	mov    0x20(%rax),%rax
    4005:	48 89 45 d0          	mov    %rax,-0x30(%rbp)
    
    sp = ssa_gpr->REG(sp);
    4009:	48 8b 45 d0          	mov    -0x30(%rbp),%rax
    400d:	48 8b 40 20          	mov    0x20(%rax),%rax
    4011:	48 89 45 f0          	mov    %rax,-0x10(%rbp)
    if(!is_stack_addr((void*)sp, 0))  // check stack overrun only, alignment will be checked after exception handled
    4015:	48 8b 45 f0          	mov    -0x10(%rbp),%rax
    4019:	be 00 00 00 00       	mov    $0x0,%esi
    401e:	48 89 c7             	mov    %rax,%rdi
    4021:	e8 f3 fb ff ff       	callq  3c19 <is_stack_addr>
    4026:	83 f0 01             	xor    $0x1,%eax
    4029:	84 c0                	test   %al,%al
    402b:	74 17                	je     4044 <trts_handle_exception+0x10a>
    {
        g_enclave_state = ENCLAVE_CRASHED;
    402d:	48 8d 05 6c d0 00 00 	lea    0xd06c(%rip),%rax        # 110a0 <g_enclave_state>
    4034:	c7 00 03 00 00 00    	movl   $0x3,(%rax)
        return SGX_ERROR_STACK_OVERRUN;
    403a:	b8 09 10 00 00       	mov    $0x1009,%eax
    403f:	e9 db 03 00 00       	jmpq   441f <trts_handle_exception+0x4e5>
    }

    size = 0;
    4044:	48 c7 45 e8 00 00 00 	movq   $0x0,-0x18(%rbp)
    404b:	00 
    // x86_64 requires a 128-bytes red zone, which begins directly
    // after the return addr and includes func's arguments
    size += RED_ZONE_SIZE;
    404c:	48 83 6d e8 80       	subq   $0xffffffffffffff80,-0x18(%rbp)

    // decrease the stack to give space for info
    size += sizeof(sgx_exception_info_t);
    4051:	48 81 45 e8 98 00 00 	addq   $0x98,-0x18(%rbp)
    4058:	00 
    sp -= size;
    4059:	48 8b 45 e8          	mov    -0x18(%rbp),%rax
    405d:	48 29 45 f0          	sub    %rax,-0x10(%rbp)
    sp = sp & ~0xF;
    4061:	48 83 65 f0 f0       	andq   $0xfffffffffffffff0,-0x10(%rbp)

    // check the decreased sp to make sure it is in the trusted stack range
    if(!is_stack_addr((void *)sp, size))
    4066:	48 8b 45 f0          	mov    -0x10(%rbp),%rax
    406a:	48 8b 55 e8          	mov    -0x18(%rbp),%rdx
    406e:	48 89 d6             	mov    %rdx,%rsi
    4071:	48 89 c7             	mov    %rax,%rdi
    4074:	e8 a0 fb ff ff       	callq  3c19 <is_stack_addr>
    4079:	83 f0 01             	xor    $0x1,%eax
    407c:	84 c0                	test   %al,%al
    407e:	74 17                	je     4097 <trts_handle_exception+0x15d>
    {
        g_enclave_state = ENCLAVE_CRASHED;
    4080:	48 8d 05 19 d0 00 00 	lea    0xd019(%rip),%rax        # 110a0 <g_enclave_state>
    4087:	c7 00 03 00 00 00    	movl   $0x3,(%rax)
        return SGX_ERROR_STACK_OVERRUN;
    408d:	b8 09 10 00 00       	mov    $0x1009,%eax
    4092:	e9 88 03 00 00       	jmpq   441f <trts_handle_exception+0x4e5>
    }

    info = (sgx_exception_info_t *)sp;
    4097:	48 8b 45 f0          	mov    -0x10(%rbp),%rax
    409b:	48 89 45 d8          	mov    %rax,-0x28(%rbp)
    // decrease the stack to save the SSA[0]->ip
    size = sizeof(uintptr_t);
    409f:	48 c7 45 e8 08 00 00 	movq   $0x8,-0x18(%rbp)
    40a6:	00 
    sp -= size;
    40a7:	48 8b 45 e8          	mov    -0x18(%rbp),%rax
    40ab:	48 29 45 f0          	sub    %rax,-0x10(%rbp)
    if(!is_stack_addr((void *)sp, size))
    40af:	48 8b 45 f0          	mov    -0x10(%rbp),%rax
    40b3:	48 8b 55 e8          	mov    -0x18(%rbp),%rdx
    40b7:	48 89 d6             	mov    %rdx,%rsi
    40ba:	48 89 c7             	mov    %rax,%rdi
    40bd:	e8 57 fb ff ff       	callq  3c19 <is_stack_addr>
    40c2:	83 f0 01             	xor    $0x1,%eax
    40c5:	84 c0                	test   %al,%al
    40c7:	74 17                	je     40e0 <trts_handle_exception+0x1a6>
    {
        g_enclave_state = ENCLAVE_CRASHED;
    40c9:	48 8d 05 d0 cf 00 00 	lea    0xcfd0(%rip),%rax        # 110a0 <g_enclave_state>
    40d0:	c7 00 03 00 00 00    	movl   $0x3,(%rax)
        return SGX_ERROR_STACK_OVERRUN;
    40d6:	b8 09 10 00 00       	mov    $0x1009,%eax
    40db:	e9 3f 03 00 00       	jmpq   441f <trts_handle_exception+0x4e5>
    }
    
    // sp is within limit_addr and commit_addr, currently only SGX 2.0 under hardware mode will enter this branch.^M
    if((size_t)sp < thread_data->stack_commit_addr)
    40e0:	48 8b 45 c8          	mov    -0x38(%rbp),%rax
    40e4:	48 8b 80 98 00 00 00 	mov    0x98(%rax),%rax
    40eb:	48 39 45 f0          	cmp    %rax,-0x10(%rbp)
    40ef:	0f 83 ca 00 00 00    	jae    41bf <trts_handle_exception+0x285>
    { 
        int ret = -1;
    40f5:	c7 45 c4 ff ff ff ff 	movl   $0xffffffff,-0x3c(%rbp)
        size_t page_aligned_delta = 0;
    40fc:	48 c7 45 f8 00 00 00 	movq   $0x0,-0x8(%rbp)
    4103:	00 
        /* try to allocate memory dynamically */
        page_aligned_delta = ROUND_TO(thread_data->stack_commit_addr - (size_t)sp, SE_PAGE_SIZE);
    4104:	48 8b 45 c8          	mov    -0x38(%rbp),%rax
    4108:	48 8b 80 98 00 00 00 	mov    0x98(%rax),%rax
    410f:	48 2b 45 f0          	sub    -0x10(%rbp),%rax
    4113:	48 05 ff 0f 00 00    	add    $0xfff,%rax
    4119:	48 25 00 f0 ff ff    	and    $0xfffffffffffff000,%rax
    411f:	48 89 45 f8          	mov    %rax,-0x8(%rbp)
        if ((thread_data->stack_commit_addr > page_aligned_delta)
    4123:	48 8b 45 c8          	mov    -0x38(%rbp),%rax
    4127:	48 8b 80 98 00 00 00 	mov    0x98(%rax),%rax
    412e:	48 39 45 f8          	cmp    %rax,-0x8(%rbp)
    4132:	73 47                	jae    417b <trts_handle_exception+0x241>
                && ((thread_data->stack_commit_addr - page_aligned_delta) >= thread_data->stack_limit_addr))
    4134:	48 8b 45 c8          	mov    -0x38(%rbp),%rax
    4138:	48 8b 80 98 00 00 00 	mov    0x98(%rax),%rax
    413f:	48 2b 45 f8          	sub    -0x8(%rbp),%rax
    4143:	48 89 c2             	mov    %rax,%rdx
    4146:	48 8b 45 c8          	mov    -0x38(%rbp),%rax
    414a:	48 8b 40 18          	mov    0x18(%rax),%rax
    414e:	48 39 c2             	cmp    %rax,%rdx
    4151:	72 28                	jb     417b <trts_handle_exception+0x241>
        {
            ret = expand_stack_by_pages((void *)(thread_data->stack_commit_addr - page_aligned_delta), (page_aligned_delta >> SE_PAGE_SHIFT));
    4153:	48 8b 45 f8          	mov    -0x8(%rbp),%rax
    4157:	48 c1 e8 0c          	shr    $0xc,%rax
    415b:	48 89 c2             	mov    %rax,%rdx
    415e:	48 8b 45 c8          	mov    -0x38(%rbp),%rax
    4162:	48 8b 80 98 00 00 00 	mov    0x98(%rax),%rax
    4169:	48 2b 45 f8          	sub    -0x8(%rbp),%rax
    416d:	48 89 d6             	mov    %rdx,%rsi
    4170:	48 89 c7             	mov    %rax,%rdi
    4173:	e8 7b fd ff ff       	callq  3ef3 <_ZL21expand_stack_by_pagesPvm>
    4178:	89 45 c4             	mov    %eax,-0x3c(%rbp)
        }
        if (ret == 0)
    417b:	83 7d c4 00          	cmpl   $0x0,-0x3c(%rbp)
    417f:	75 27                	jne    41a8 <trts_handle_exception+0x26e>
        {
            thread_data->stack_commit_addr -= page_aligned_delta;
    4181:	48 8b 45 c8          	mov    -0x38(%rbp),%rax
    4185:	48 8b 80 98 00 00 00 	mov    0x98(%rax),%rax
    418c:	48 2b 45 f8          	sub    -0x8(%rbp),%rax
    4190:	48 89 c2             	mov    %rax,%rdx
    4193:	48 8b 45 c8          	mov    -0x38(%rbp),%rax
    4197:	48 89 90 98 00 00 00 	mov    %rdx,0x98(%rax)
            return SGX_SUCCESS;
    419e:	b8 00 00 00 00       	mov    $0x0,%eax
    41a3:	e9 77 02 00 00       	jmpq   441f <trts_handle_exception+0x4e5>
        }
        else
        {
            g_enclave_state = ENCLAVE_CRASHED;
    41a8:	48 8d 05 f1 ce 00 00 	lea    0xcef1(%rip),%rax        # 110a0 <g_enclave_state>
    41af:	c7 00 03 00 00 00    	movl   $0x3,(%rax)
            return SGX_ERROR_STACK_OVERRUN;
    41b5:	b8 09 10 00 00       	mov    $0x1009,%eax
    41ba:	e9 60 02 00 00       	jmpq   441f <trts_handle_exception+0x4e5>
        }
    }
    if (size_t(&Lereport_inst) == ssa_gpr->REG(ip) && SE_EREPORT == ssa_gpr->REG(ax))
    41bf:	48 8b 45 d0          	mov    -0x30(%rbp),%rax
    41c3:	48 8b 80 88 00 00 00 	mov    0x88(%rax),%rax
    41ca:	48 8d 15 a5 87 00 00 	lea    0x87a5(%rip),%rdx        # c976 <Lereport_inst>
    41d1:	48 39 d0             	cmp    %rdx,%rax
    41d4:	75 4d                	jne    4223 <trts_handle_exception+0x2e9>
    41d6:	48 8b 45 d0          	mov    -0x30(%rbp),%rax
